;
; File generated by cc65 v 2.18 - N/A
;
	.fopt		compiler,"cc65 v 2.18 - N/A"
	.setcpu		"6502"
	.smart		on
	.autoimport	on
	.case		on
	.debuginfo	off
	.importzp	sp, sreg, regsave, regbank
	.importzp	tmp1, tmp2, tmp3, tmp4, ptr1, ptr2, ptr3, ptr4
	.macpack	longbranch
	.forceimport	__STARTUP__
	.import		_pal_bg
	.import		_pal_spr
	.import		_pal_col
	.import		_ppu_wait_nmi
	.import		_ppu_off
	.import		_ppu_on_all
	.import		_oam_clear
	.import		_oam_meta_spr
	.import		_pad_poll
	.import		_scroll
	.import		_bank_spr
	.import		_vram_adr
	.import		_vram_put
	.import		_vram_unrle
	.import		_delay
	.import		_set_vram_buffer
	.import		_one_vram_buffer
	.import		_multi_vram_buffer_horz
	.import		_get_pad_new
	.import		_pal_fade_to
	.import		_set_scroll_y
	.import		_flush_vram_update2
	.import		_zap_shoot
	.import		_zap_read
	.export		_bankLevel
	.export		_bankBuffer
	.export		_banked_call
	.export		_bank_push
	.export		_bank_pop
	.import		_set_prg_bank
	.import		_get_prg_bank
	.import		_set_chr_bank_0
	.import		_set_chr_bank_1
	.import		_set_mirroring
	.export		_pad1_zapper
	.export		_zapper_ready
	.export		_hit_detected
	.export		_debug_mode
	.export		_scroll_y
	.export		_scrolled_past_once
	.export		_scroll_page
	.export		_scroll_page_end
	.export		_stop_scrolling
	.export		_option
	.export		_cost5
	.export		_cost4
	.export		_cost3
	.export		_cost2
	.export		_cost1
	.export		_cost5_changed
	.export		_cost4_changed
	.export		_cost3_changed
	.export		_cost2_changed
	.export		_cost1_changed
	.export		_gas5
	.export		_gas4
	.export		_gas3
	.export		_gas2
	.export		_gas1
	.export		_gas5_changed
	.export		_gas4_changed
	.export		_gas3_changed
	.export		_gas2_changed
	.export		_gas1_changed
	.export		_alien_level
	.export		_gas_goal
	.export		_gas_goal_hundreds
	.export		_gas_goal_array
	.export		_gas_speed
	.export		_cost_speed
	.export		_gas_pumped
	.export		_pad1
	.export		_pad1_new
	.export		_trigger_pulled
	.export		_trigger_clicked
	.export		_debug_trigger_hit
	.export		_debug_trigger_miss
	.export		_started_pumping
	.export		_sprite_cost
	.export		_cost_sprite
	.export		_game_mode
	.export		_game_level
	.export		_levels_complete
	.export		_perfect_levels
	.export		_pointer
	.export		_temp1
	.export		_temp2
	.export		_tempint
	.export		_talking_time
	.export		_bird_x
	.export		_bird_y
	.export		_address
	.export		_x
	.export		_y
	.export		_num_holder
	.export		_index
	.export		_index2
	.export		_largeindex
	.export		_text_rendered
	.export		_text_length
	.export		_text_row
	.export		_text_col
	.export		_text_x_start
	.export		_text_y_start
	.export		_moveframes
	.export		_wram_array
	.export		_read_input
	.export		_typewriter
	.export		_reset_text_values
	.export		_gas_level_init
	.export		_draw_talking_time
	.export		_draw_talking_time_background
	.export		_draw_evaluation_time_background
	.export		_draw_talking_time_sprites
	.export		_clear_background
	.export		_white_background
	.export		_reset_game_variables
	.export		_wait_a_little
	.export		_TurboGut_2
	.export		_BigAlTalkSmallMouth
	.export		_BigAlTalkMidMouth
	.export		_BigAlTalkClosedMouth
	.export		_BigAlTalkBigMouth
	.export		_BigAlsEyes
	.export		_Decimal_1
	.export		_BigAlsShirt
	.export		_Bird
	.export		_One
	.export		_Two
	.export		_Three
	.export		_Four
	.export		_Five
	.export		_Six
	.export		_Seven
	.export		_Eight
	.export		_Nine
	.export		_Zero
	.export		_intrometasprites_0_data
	.export		_intrometasprites_1_data
	.export		_intrometasprites_2_data
	.export		_intrometasprites_3_data
	.export		_intrometasprites_4_data
	.export		_intrometasprites_5_data
	.export		_intrometasprites_6_data
	.export		_intrometasprites_7_data
	.export		_intrometasprites_8_data
	.export		_intrometasprites_9_data
	.export		_intrometasprites_10_data
	.export		_intrometasprites_11_data
	.export		_intrometasprites_12_data
	.export		_metatiles_1
	.export		_room_1
	.export		_LEVEL_1_PUMP
	.export		_evaluation_rle
	.export		_talkingtime_rle
	.export		_gaspump_palette
	.export		_futurepump_palette
	.export		_talking_time_palette
	.export		_intro_cutscene_gun_palette
	.export		_intro_cutscene_palette
	.export		_gaspump_sprite_palette
	.export		_fade_1
	.export		_fade_2
	.export		_intro_cutscene_1
	.export		_intro_cutscene_2
	.export		_intro_cutscene_3
	.export		_intro_scroll_1
	.export		_intro_scroll_2
	.export		_intro_scroll_3
	.export		_intro_scroll_4
	.export		_intro_scroll_5
	.export		_intro_single_page
	.export		_cutscenegun_small_arrow
	.export		_bank_1_instructions_init
	.export		_cutscene_index
	.export		_nametable_index
	.export		_attribute_table_index
	.export		_attribute_bytes_written
	.export		_line_counter
	.export		_screen_line_counter
	.export		_bank_0_intro_scroll_init
	.export		_bank_0_title_loop
	.export		_bank_0_intro_cutscene_init
	.export		_bank_0_intro_scroll_loop
	.export		_bank_0_intro_cutscene_loop
	.export		_level_0_text
	.export		_level_1_text
	.export		_level_2_text
	.export		_bank_4_cutscene_init
	.export		_bank_1_instructions_loop
	.export		_title_screen_rle
	.export		_bank_1_title_init
	.export		_level_0_max
	.export		_level_0_good
	.export		_level_0_ok
	.export		_level_0_bad
	.export		_bank_2_init_level_one_end
	.export		_bank_2_evaluation_loop
	.export		_bank_3_draw_level_one_sprites
	.export		_bank_3_draw_number_as_bg_tile
	.export		_bank_3_draw_cost
	.export		_bank_3_draw_gas
	.export		_bank_3_find_sprite
	.export		_bank_3_adjust_gas
	.export		_bank_3_adjust_cost
	.export		_bank_3_level_loop
	.export		_FUTURE_PUMP_LEVEL
	.export		_abduction_cutscene
	.export		_bank_4_alien_level_init
	.export		_bank_4_instruction_init
	.export		_bank_4_instruction_loop
	.export		_bank_4_cutscene_loop
	.export		_bank_4_alien_level_loop
	.export		_main

.segment	"DATA"

_talking_time:
	.byte	$00
_index:
	.byte	$00
_cutscene_index:
	.word	$2000
_nametable_index:
	.word	$0000
_attribute_table_index:
	.word	$0000
_attribute_bytes_written:
	.byte	$00
_line_counter:
	.byte	$00
_screen_line_counter:
	.byte	$00

.segment	"RODATA"

_debug_mode:
	.byte	$01
_gas_goal_array:
	.byte	$01
	.byte	$02
	.byte	$03
	.byte	$04
_TurboGut_2:
	.byte	$00
	.byte	$00
	.byte	$00
	.byte	$00
	.byte	$08
	.byte	$00
	.byte	$01
	.byte	$00
	.byte	$00
	.byte	$08
	.byte	$10
	.byte	$00
	.byte	$08
	.byte	$08
	.byte	$11
	.byte	$00
	.byte	$80
_BigAlTalkSmallMouth:
	.byte	$08
	.byte	$00
	.byte	$8C
	.byte	$00
	.byte	$10
	.byte	$00
	.byte	$8D
	.byte	$00
	.byte	$18
	.byte	$00
	.byte	$8E
	.byte	$00
	.byte	$20
	.byte	$00
	.byte	$8F
	.byte	$00
	.byte	$80
_BigAlTalkMidMouth:
	.byte	$08
	.byte	$00
	.byte	$9C
	.byte	$00
	.byte	$10
	.byte	$00
	.byte	$9D
	.byte	$00
	.byte	$18
	.byte	$00
	.byte	$9E
	.byte	$00
	.byte	$20
	.byte	$00
	.byte	$9F
	.byte	$00
	.byte	$80
_BigAlTalkClosedMouth:
	.byte	$08
	.byte	$00
	.byte	$AC
	.byte	$00
	.byte	$10
	.byte	$00
	.byte	$AD
	.byte	$00
	.byte	$18
	.byte	$00
	.byte	$AE
	.byte	$00
	.byte	$20
	.byte	$00
	.byte	$AF
	.byte	$00
	.byte	$80
_BigAlTalkBigMouth:
	.byte	$08
	.byte	$00
	.byte	$BC
	.byte	$00
	.byte	$10
	.byte	$00
	.byte	$BD
	.byte	$00
	.byte	$18
	.byte	$00
	.byte	$BE
	.byte	$00
	.byte	$20
	.byte	$00
	.byte	$BF
	.byte	$00
	.byte	$80
_BigAlsEyes:
	.byte	$00
	.byte	$00
	.byte	$A8
	.byte	$00
	.byte	$08
	.byte	$00
	.byte	$A9
	.byte	$00
	.byte	$10
	.byte	$00
	.byte	$A8
	.byte	$00
	.byte	$18
	.byte	$00
	.byte	$A9
	.byte	$00
	.byte	$80
_Decimal_1:
	.byte	$00
	.byte	$00
	.byte	$84
	.byte	$00
	.byte	$80
_BigAlsShirt:
	.byte	$00
	.byte	$00
	.byte	$D8
	.byte	$00
	.byte	$08
	.byte	$00
	.byte	$D9
	.byte	$00
	.byte	$10
	.byte	$00
	.byte	$DA
	.byte	$00
	.byte	$18
	.byte	$00
	.byte	$DB
	.byte	$00
	.byte	$20
	.byte	$00
	.byte	$DC
	.byte	$00
	.byte	$28
	.byte	$00
	.byte	$DD
	.byte	$00
	.byte	$30
	.byte	$00
	.byte	$DE
	.byte	$00
	.byte	$38
	.byte	$00
	.byte	$DF
	.byte	$00
	.byte	$00
	.byte	$08
	.byte	$E8
	.byte	$00
	.byte	$08
	.byte	$08
	.byte	$E9
	.byte	$00
	.byte	$10
	.byte	$08
	.byte	$EA
	.byte	$00
	.byte	$18
	.byte	$08
	.byte	$EB
	.byte	$00
	.byte	$20
	.byte	$08
	.byte	$EC
	.byte	$00
	.byte	$28
	.byte	$08
	.byte	$ED
	.byte	$00
	.byte	$30
	.byte	$08
	.byte	$EE
	.byte	$00
	.byte	$38
	.byte	$08
	.byte	$EF
	.byte	$00
	.byte	$00
	.byte	$10
	.byte	$F8
	.byte	$00
	.byte	$08
	.byte	$10
	.byte	$F9
	.byte	$00
	.byte	$10
	.byte	$10
	.byte	$FA
	.byte	$00
	.byte	$18
	.byte	$10
	.byte	$FB
	.byte	$00
	.byte	$20
	.byte	$10
	.byte	$FC
	.byte	$00
	.byte	$28
	.byte	$10
	.byte	$FD
	.byte	$00
	.byte	$30
	.byte	$10
	.byte	$FE
	.byte	$00
	.byte	$38
	.byte	$10
	.byte	$FF
	.byte	$00
	.byte	$80
_Bird:
	.byte	$00
	.byte	$00
	.byte	$A2
	.byte	$20
	.byte	$08
	.byte	$00
	.byte	$A3
	.byte	$20
	.byte	$10
	.byte	$00
	.byte	$A4
	.byte	$20
	.byte	$00
	.byte	$08
	.byte	$B2
	.byte	$20
	.byte	$08
	.byte	$08
	.byte	$B3
	.byte	$20
	.byte	$10
	.byte	$08
	.byte	$B4
	.byte	$20
	.byte	$80
_One:
	.byte	$00
	.byte	$00
	.byte	$00
	.byte	$00
	.byte	$08
	.byte	$00
	.byte	$01
	.byte	$00
	.byte	$00
	.byte	$08
	.byte	$10
	.byte	$00
	.byte	$08
	.byte	$08
	.byte	$11
	.byte	$00
	.byte	$00
	.byte	$10
	.byte	$20
	.byte	$00
	.byte	$08
	.byte	$10
	.byte	$21
	.byte	$00
	.byte	$00
	.byte	$18
	.byte	$30
	.byte	$00
	.byte	$08
	.byte	$18
	.byte	$31
	.byte	$00
	.byte	$80
_Two:
	.byte	$00
	.byte	$00
	.byte	$02
	.byte	$00
	.byte	$08
	.byte	$00
	.byte	$03
	.byte	$00
	.byte	$00
	.byte	$08
	.byte	$12
	.byte	$00
	.byte	$08
	.byte	$08
	.byte	$13
	.byte	$00
	.byte	$00
	.byte	$10
	.byte	$22
	.byte	$00
	.byte	$08
	.byte	$10
	.byte	$23
	.byte	$00
	.byte	$00
	.byte	$18
	.byte	$32
	.byte	$00
	.byte	$08
	.byte	$18
	.byte	$33
	.byte	$00
	.byte	$80
_Three:
	.byte	$00
	.byte	$00
	.byte	$04
	.byte	$00
	.byte	$08
	.byte	$00
	.byte	$05
	.byte	$00
	.byte	$00
	.byte	$08
	.byte	$14
	.byte	$00
	.byte	$08
	.byte	$08
	.byte	$15
	.byte	$00
	.byte	$00
	.byte	$10
	.byte	$24
	.byte	$00
	.byte	$08
	.byte	$10
	.byte	$25
	.byte	$00
	.byte	$00
	.byte	$18
	.byte	$34
	.byte	$00
	.byte	$08
	.byte	$18
	.byte	$35
	.byte	$00
	.byte	$80
_Four:
	.byte	$00
	.byte	$00
	.byte	$06
	.byte	$00
	.byte	$08
	.byte	$00
	.byte	$07
	.byte	$00
	.byte	$00
	.byte	$08
	.byte	$16
	.byte	$00
	.byte	$08
	.byte	$08
	.byte	$17
	.byte	$00
	.byte	$00
	.byte	$10
	.byte	$26
	.byte	$00
	.byte	$08
	.byte	$10
	.byte	$27
	.byte	$00
	.byte	$00
	.byte	$18
	.byte	$36
	.byte	$00
	.byte	$08
	.byte	$18
	.byte	$37
	.byte	$00
	.byte	$80
_Five:
	.byte	$00
	.byte	$00
	.byte	$08
	.byte	$00
	.byte	$08
	.byte	$00
	.byte	$09
	.byte	$00
	.byte	$00
	.byte	$08
	.byte	$18
	.byte	$00
	.byte	$08
	.byte	$08
	.byte	$19
	.byte	$00
	.byte	$00
	.byte	$10
	.byte	$28
	.byte	$00
	.byte	$08
	.byte	$10
	.byte	$29
	.byte	$00
	.byte	$00
	.byte	$18
	.byte	$38
	.byte	$00
	.byte	$08
	.byte	$18
	.byte	$39
	.byte	$00
	.byte	$80
_Six:
	.byte	$00
	.byte	$00
	.byte	$0A
	.byte	$00
	.byte	$08
	.byte	$00
	.byte	$0B
	.byte	$00
	.byte	$00
	.byte	$08
	.byte	$1A
	.byte	$00
	.byte	$08
	.byte	$08
	.byte	$1B
	.byte	$00
	.byte	$00
	.byte	$10
	.byte	$2A
	.byte	$00
	.byte	$08
	.byte	$10
	.byte	$2B
	.byte	$00
	.byte	$00
	.byte	$18
	.byte	$3A
	.byte	$00
	.byte	$08
	.byte	$18
	.byte	$3B
	.byte	$00
	.byte	$80
_Seven:
	.byte	$00
	.byte	$00
	.byte	$0C
	.byte	$00
	.byte	$08
	.byte	$00
	.byte	$0D
	.byte	$00
	.byte	$00
	.byte	$08
	.byte	$1C
	.byte	$00
	.byte	$08
	.byte	$08
	.byte	$1D
	.byte	$00
	.byte	$00
	.byte	$10
	.byte	$2C
	.byte	$00
	.byte	$08
	.byte	$10
	.byte	$2D
	.byte	$00
	.byte	$00
	.byte	$18
	.byte	$3C
	.byte	$00
	.byte	$08
	.byte	$18
	.byte	$3D
	.byte	$00
	.byte	$80
_Eight:
	.byte	$00
	.byte	$00
	.byte	$0E
	.byte	$00
	.byte	$08
	.byte	$00
	.byte	$0F
	.byte	$00
	.byte	$00
	.byte	$08
	.byte	$1E
	.byte	$00
	.byte	$08
	.byte	$08
	.byte	$1F
	.byte	$00
	.byte	$00
	.byte	$10
	.byte	$2E
	.byte	$00
	.byte	$08
	.byte	$10
	.byte	$2F
	.byte	$00
	.byte	$00
	.byte	$18
	.byte	$3E
	.byte	$00
	.byte	$08
	.byte	$18
	.byte	$3F
	.byte	$00
	.byte	$80
_Nine:
	.byte	$00
	.byte	$00
	.byte	$4E
	.byte	$00
	.byte	$08
	.byte	$00
	.byte	$4F
	.byte	$00
	.byte	$00
	.byte	$08
	.byte	$5E
	.byte	$00
	.byte	$08
	.byte	$08
	.byte	$5F
	.byte	$00
	.byte	$00
	.byte	$10
	.byte	$6E
	.byte	$00
	.byte	$08
	.byte	$10
	.byte	$6F
	.byte	$00
	.byte	$00
	.byte	$18
	.byte	$7E
	.byte	$00
	.byte	$08
	.byte	$18
	.byte	$7F
	.byte	$00
	.byte	$80
_Zero:
	.byte	$00
	.byte	$00
	.byte	$4C
	.byte	$00
	.byte	$08
	.byte	$00
	.byte	$4D
	.byte	$00
	.byte	$00
	.byte	$08
	.byte	$5C
	.byte	$00
	.byte	$08
	.byte	$08
	.byte	$5D
	.byte	$00
	.byte	$00
	.byte	$10
	.byte	$6C
	.byte	$00
	.byte	$08
	.byte	$10
	.byte	$6D
	.byte	$00
	.byte	$00
	.byte	$18
	.byte	$7C
	.byte	$00
	.byte	$08
	.byte	$18
	.byte	$7D
	.byte	$00
	.byte	$80
_intrometasprites_0_data:
	.byte	$F0
	.byte	$F0
	.byte	$1B
	.byte	$02
	.byte	$F8
	.byte	$F0
	.byte	$1C
	.byte	$02
	.byte	$00
	.byte	$F0
	.byte	$1D
	.byte	$02
	.byte	$08
	.byte	$F0
	.byte	$1E
	.byte	$02
	.byte	$F0
	.byte	$F8
	.byte	$2B
	.byte	$02
	.byte	$F8
	.byte	$F8
	.byte	$2C
	.byte	$02
	.byte	$08
	.byte	$F8
	.byte	$2E
	.byte	$02
	.byte	$00
	.byte	$F8
	.byte	$2D
	.byte	$02
	.byte	$F0
	.byte	$00
	.byte	$3B
	.byte	$02
	.byte	$F8
	.byte	$00
	.byte	$3C
	.byte	$02
	.byte	$00
	.byte	$00
	.byte	$3D
	.byte	$02
	.byte	$08
	.byte	$00
	.byte	$3E
	.byte	$02
	.byte	$80
_intrometasprites_1_data:
	.byte	$FE
	.byte	$F9
	.byte	$58
	.byte	$03
	.byte	$FE
	.byte	$F2
	.byte	$48
	.byte	$03
	.byte	$00
	.byte	$07
	.byte	$29
	.byte	$03
	.byte	$00
	.byte	$FF
	.byte	$19
	.byte	$03
	.byte	$FB
	.byte	$06
	.byte	$28
	.byte	$03
	.byte	$FB
	.byte	$FE
	.byte	$18
	.byte	$03
	.byte	$00
	.byte	$09
	.byte	$39
	.byte	$01
	.byte	$FA
	.byte	$08
	.byte	$38
	.byte	$01
	.byte	$F8
	.byte	$F0
	.byte	$06
	.byte	$02
	.byte	$00
	.byte	$F0
	.byte	$07
	.byte	$02
	.byte	$F8
	.byte	$F8
	.byte	$16
	.byte	$02
	.byte	$00
	.byte	$F8
	.byte	$17
	.byte	$02
	.byte	$F8
	.byte	$00
	.byte	$26
	.byte	$02
	.byte	$F8
	.byte	$08
	.byte	$36
	.byte	$02
	.byte	$00
	.byte	$08
	.byte	$37
	.byte	$02
	.byte	$00
	.byte	$00
	.byte	$27
	.byte	$02
	.byte	$F9
	.byte	$F2
	.byte	$08
	.byte	$00
	.byte	$F6
	.byte	$EF
	.byte	$3A
	.byte	$00
	.byte	$F7
	.byte	$E7
	.byte	$2A
	.byte	$00
	.byte	$F9
	.byte	$E1
	.byte	$1A
	.byte	$00
	.byte	$FA
	.byte	$D7
	.byte	$0A
	.byte	$00
	.byte	$80
_intrometasprites_2_data:
	.byte	$FE
	.byte	$F9
	.byte	$58
	.byte	$03
	.byte	$FE
	.byte	$F2
	.byte	$48
	.byte	$03
	.byte	$00
	.byte	$07
	.byte	$29
	.byte	$03
	.byte	$00
	.byte	$FF
	.byte	$19
	.byte	$03
	.byte	$FB
	.byte	$06
	.byte	$28
	.byte	$03
	.byte	$FB
	.byte	$FE
	.byte	$18
	.byte	$03
	.byte	$00
	.byte	$09
	.byte	$39
	.byte	$01
	.byte	$FA
	.byte	$08
	.byte	$38
	.byte	$01
	.byte	$F8
	.byte	$F0
	.byte	$06
	.byte	$02
	.byte	$00
	.byte	$F0
	.byte	$07
	.byte	$02
	.byte	$F8
	.byte	$F8
	.byte	$16
	.byte	$02
	.byte	$00
	.byte	$F8
	.byte	$17
	.byte	$02
	.byte	$F8
	.byte	$00
	.byte	$26
	.byte	$02
	.byte	$F8
	.byte	$08
	.byte	$36
	.byte	$02
	.byte	$00
	.byte	$08
	.byte	$37
	.byte	$02
	.byte	$00
	.byte	$00
	.byte	$27
	.byte	$02
	.byte	$F9
	.byte	$F2
	.byte	$08
	.byte	$00
	.byte	$FA
	.byte	$D7
	.byte	$0A
	.byte	$00
	.byte	$80
_intrometasprites_3_data:
	.byte	$FE
	.byte	$F9
	.byte	$58
	.byte	$03
	.byte	$FE
	.byte	$F2
	.byte	$48
	.byte	$03
	.byte	$00
	.byte	$07
	.byte	$29
	.byte	$03
	.byte	$00
	.byte	$FF
	.byte	$19
	.byte	$03
	.byte	$FB
	.byte	$06
	.byte	$28
	.byte	$03
	.byte	$FB
	.byte	$FE
	.byte	$18
	.byte	$03
	.byte	$00
	.byte	$09
	.byte	$39
	.byte	$01
	.byte	$FA
	.byte	$08
	.byte	$38
	.byte	$01
	.byte	$F8
	.byte	$F0
	.byte	$06
	.byte	$02
	.byte	$00
	.byte	$F0
	.byte	$07
	.byte	$02
	.byte	$F8
	.byte	$F8
	.byte	$16
	.byte	$02
	.byte	$00
	.byte	$F8
	.byte	$17
	.byte	$02
	.byte	$F8
	.byte	$00
	.byte	$26
	.byte	$02
	.byte	$F8
	.byte	$08
	.byte	$36
	.byte	$02
	.byte	$00
	.byte	$08
	.byte	$37
	.byte	$02
	.byte	$00
	.byte	$00
	.byte	$27
	.byte	$02
	.byte	$F9
	.byte	$F2
	.byte	$08
	.byte	$00
	.byte	$F9
	.byte	$E1
	.byte	$1A
	.byte	$00
	.byte	$FA
	.byte	$D7
	.byte	$0A
	.byte	$00
	.byte	$80
_intrometasprites_4_data:
	.byte	$FE
	.byte	$F9
	.byte	$58
	.byte	$03
	.byte	$FE
	.byte	$F2
	.byte	$48
	.byte	$03
	.byte	$00
	.byte	$07
	.byte	$29
	.byte	$03
	.byte	$00
	.byte	$FF
	.byte	$19
	.byte	$03
	.byte	$FB
	.byte	$06
	.byte	$28
	.byte	$03
	.byte	$FB
	.byte	$FE
	.byte	$18
	.byte	$03
	.byte	$00
	.byte	$09
	.byte	$39
	.byte	$01
	.byte	$FA
	.byte	$08
	.byte	$38
	.byte	$01
	.byte	$F8
	.byte	$F0
	.byte	$06
	.byte	$02
	.byte	$00
	.byte	$F0
	.byte	$07
	.byte	$02
	.byte	$F8
	.byte	$F8
	.byte	$16
	.byte	$02
	.byte	$00
	.byte	$F8
	.byte	$17
	.byte	$02
	.byte	$F8
	.byte	$00
	.byte	$26
	.byte	$02
	.byte	$F8
	.byte	$08
	.byte	$36
	.byte	$02
	.byte	$00
	.byte	$08
	.byte	$37
	.byte	$02
	.byte	$00
	.byte	$00
	.byte	$27
	.byte	$02
	.byte	$F9
	.byte	$F2
	.byte	$08
	.byte	$00
	.byte	$F7
	.byte	$E7
	.byte	$2A
	.byte	$00
	.byte	$F9
	.byte	$E1
	.byte	$1A
	.byte	$00
	.byte	$FA
	.byte	$D7
	.byte	$0A
	.byte	$00
	.byte	$80
_intrometasprites_5_data:
	.byte	$FE
	.byte	$F9
	.byte	$58
	.byte	$03
	.byte	$FE
	.byte	$F2
	.byte	$48
	.byte	$03
	.byte	$00
	.byte	$07
	.byte	$29
	.byte	$03
	.byte	$00
	.byte	$FF
	.byte	$19
	.byte	$03
	.byte	$FB
	.byte	$06
	.byte	$28
	.byte	$03
	.byte	$FB
	.byte	$FE
	.byte	$18
	.byte	$03
	.byte	$00
	.byte	$09
	.byte	$39
	.byte	$01
	.byte	$FA
	.byte	$08
	.byte	$38
	.byte	$01
	.byte	$F8
	.byte	$F0
	.byte	$06
	.byte	$02
	.byte	$00
	.byte	$F0
	.byte	$07
	.byte	$02
	.byte	$F8
	.byte	$F8
	.byte	$16
	.byte	$02
	.byte	$00
	.byte	$F8
	.byte	$17
	.byte	$02
	.byte	$F8
	.byte	$00
	.byte	$26
	.byte	$02
	.byte	$F8
	.byte	$08
	.byte	$36
	.byte	$02
	.byte	$00
	.byte	$08
	.byte	$37
	.byte	$02
	.byte	$00
	.byte	$00
	.byte	$27
	.byte	$02
	.byte	$F9
	.byte	$F2
	.byte	$08
	.byte	$00
	.byte	$F6
	.byte	$EF
	.byte	$3A
	.byte	$00
	.byte	$F7
	.byte	$E7
	.byte	$2A
	.byte	$00
	.byte	$F9
	.byte	$E1
	.byte	$1A
	.byte	$00
	.byte	$FA
	.byte	$D7
	.byte	$0A
	.byte	$00
	.byte	$80
_intrometasprites_6_data:
	.byte	$FE
	.byte	$F9
	.byte	$58
	.byte	$03
	.byte	$FE
	.byte	$F2
	.byte	$48
	.byte	$03
	.byte	$00
	.byte	$07
	.byte	$29
	.byte	$03
	.byte	$00
	.byte	$FF
	.byte	$19
	.byte	$03
	.byte	$FB
	.byte	$06
	.byte	$28
	.byte	$03
	.byte	$FB
	.byte	$FE
	.byte	$18
	.byte	$03
	.byte	$00
	.byte	$09
	.byte	$39
	.byte	$01
	.byte	$FA
	.byte	$08
	.byte	$38
	.byte	$01
	.byte	$F8
	.byte	$F0
	.byte	$06
	.byte	$02
	.byte	$00
	.byte	$F0
	.byte	$07
	.byte	$02
	.byte	$F8
	.byte	$F8
	.byte	$16
	.byte	$02
	.byte	$00
	.byte	$F8
	.byte	$17
	.byte	$02
	.byte	$F8
	.byte	$00
	.byte	$26
	.byte	$02
	.byte	$F8
	.byte	$08
	.byte	$36
	.byte	$02
	.byte	$00
	.byte	$08
	.byte	$37
	.byte	$02
	.byte	$00
	.byte	$00
	.byte	$27
	.byte	$02
	.byte	$F9
	.byte	$F2
	.byte	$08
	.byte	$00
	.byte	$F6
	.byte	$EF
	.byte	$3A
	.byte	$00
	.byte	$F7
	.byte	$E7
	.byte	$2A
	.byte	$00
	.byte	$F9
	.byte	$E1
	.byte	$1A
	.byte	$00
	.byte	$80
_intrometasprites_7_data:
	.byte	$FE
	.byte	$F9
	.byte	$58
	.byte	$03
	.byte	$FE
	.byte	$F2
	.byte	$48
	.byte	$03
	.byte	$00
	.byte	$07
	.byte	$29
	.byte	$03
	.byte	$00
	.byte	$FF
	.byte	$19
	.byte	$03
	.byte	$FB
	.byte	$06
	.byte	$28
	.byte	$03
	.byte	$FB
	.byte	$FE
	.byte	$18
	.byte	$03
	.byte	$00
	.byte	$09
	.byte	$39
	.byte	$01
	.byte	$FA
	.byte	$08
	.byte	$38
	.byte	$01
	.byte	$F8
	.byte	$F0
	.byte	$06
	.byte	$02
	.byte	$00
	.byte	$F0
	.byte	$07
	.byte	$02
	.byte	$F8
	.byte	$F8
	.byte	$16
	.byte	$02
	.byte	$00
	.byte	$F8
	.byte	$17
	.byte	$02
	.byte	$F8
	.byte	$00
	.byte	$26
	.byte	$02
	.byte	$F8
	.byte	$08
	.byte	$36
	.byte	$02
	.byte	$00
	.byte	$08
	.byte	$37
	.byte	$02
	.byte	$00
	.byte	$00
	.byte	$27
	.byte	$02
	.byte	$F9
	.byte	$F2
	.byte	$08
	.byte	$00
	.byte	$F6
	.byte	$EF
	.byte	$3A
	.byte	$00
	.byte	$F7
	.byte	$E7
	.byte	$2A
	.byte	$00
	.byte	$80
_intrometasprites_8_data:
	.byte	$FE
	.byte	$F9
	.byte	$58
	.byte	$03
	.byte	$FE
	.byte	$F2
	.byte	$48
	.byte	$03
	.byte	$00
	.byte	$07
	.byte	$29
	.byte	$03
	.byte	$00
	.byte	$FF
	.byte	$19
	.byte	$03
	.byte	$FB
	.byte	$06
	.byte	$28
	.byte	$03
	.byte	$FB
	.byte	$FE
	.byte	$18
	.byte	$03
	.byte	$00
	.byte	$09
	.byte	$39
	.byte	$01
	.byte	$FA
	.byte	$08
	.byte	$38
	.byte	$01
	.byte	$F8
	.byte	$F0
	.byte	$06
	.byte	$02
	.byte	$00
	.byte	$F0
	.byte	$07
	.byte	$02
	.byte	$F8
	.byte	$F8
	.byte	$16
	.byte	$02
	.byte	$00
	.byte	$F8
	.byte	$17
	.byte	$02
	.byte	$F8
	.byte	$00
	.byte	$26
	.byte	$02
	.byte	$F8
	.byte	$08
	.byte	$36
	.byte	$02
	.byte	$00
	.byte	$08
	.byte	$37
	.byte	$02
	.byte	$00
	.byte	$00
	.byte	$27
	.byte	$02
	.byte	$F9
	.byte	$F2
	.byte	$08
	.byte	$00
	.byte	$F6
	.byte	$EF
	.byte	$3A
	.byte	$00
	.byte	$80
_intrometasprites_9_data:
	.byte	$FE
	.byte	$F9
	.byte	$58
	.byte	$03
	.byte	$FE
	.byte	$F2
	.byte	$48
	.byte	$03
	.byte	$00
	.byte	$07
	.byte	$29
	.byte	$03
	.byte	$00
	.byte	$FF
	.byte	$19
	.byte	$03
	.byte	$FB
	.byte	$06
	.byte	$28
	.byte	$03
	.byte	$FB
	.byte	$FE
	.byte	$18
	.byte	$03
	.byte	$00
	.byte	$09
	.byte	$39
	.byte	$01
	.byte	$FA
	.byte	$08
	.byte	$38
	.byte	$01
	.byte	$F8
	.byte	$F0
	.byte	$06
	.byte	$02
	.byte	$00
	.byte	$F0
	.byte	$07
	.byte	$02
	.byte	$F8
	.byte	$F8
	.byte	$16
	.byte	$02
	.byte	$00
	.byte	$F8
	.byte	$17
	.byte	$02
	.byte	$F8
	.byte	$00
	.byte	$26
	.byte	$02
	.byte	$F8
	.byte	$08
	.byte	$36
	.byte	$02
	.byte	$00
	.byte	$08
	.byte	$37
	.byte	$02
	.byte	$F9
	.byte	$F2
	.byte	$08
	.byte	$00
	.byte	$00
	.byte	$00
	.byte	$27
	.byte	$02
	.byte	$80
_intrometasprites_10_data:
	.byte	$F9
	.byte	$F6
	.byte	$08
	.byte	$00
	.byte	$FE
	.byte	$F2
	.byte	$45
	.byte	$03
	.byte	$FE
	.byte	$FA
	.byte	$55
	.byte	$03
	.byte	$FB
	.byte	$06
	.byte	$28
	.byte	$03
	.byte	$FB
	.byte	$FE
	.byte	$18
	.byte	$03
	.byte	$00
	.byte	$FF
	.byte	$19
	.byte	$03
	.byte	$00
	.byte	$07
	.byte	$29
	.byte	$03
	.byte	$00
	.byte	$09
	.byte	$39
	.byte	$01
	.byte	$FA
	.byte	$08
	.byte	$38
	.byte	$01
	.byte	$F8
	.byte	$F0
	.byte	$04
	.byte	$02
	.byte	$00
	.byte	$F0
	.byte	$05
	.byte	$02
	.byte	$F8
	.byte	$F8
	.byte	$14
	.byte	$02
	.byte	$00
	.byte	$F8
	.byte	$15
	.byte	$02
	.byte	$F8
	.byte	$00
	.byte	$24
	.byte	$02
	.byte	$00
	.byte	$00
	.byte	$25
	.byte	$02
	.byte	$F8
	.byte	$08
	.byte	$34
	.byte	$02
	.byte	$00
	.byte	$08
	.byte	$35
	.byte	$02
	.byte	$80
_intrometasprites_11_data:
	.byte	$FD
	.byte	$FE
	.byte	$0C
	.byte	$00
	.byte	$00
	.byte	$09
	.byte	$39
	.byte	$01
	.byte	$FA
	.byte	$08
	.byte	$38
	.byte	$01
	.byte	$FB
	.byte	$06
	.byte	$28
	.byte	$03
	.byte	$FB
	.byte	$FE
	.byte	$18
	.byte	$03
	.byte	$00
	.byte	$07
	.byte	$29
	.byte	$03
	.byte	$00
	.byte	$FF
	.byte	$19
	.byte	$03
	.byte	$FE
	.byte	$F2
	.byte	$41
	.byte	$03
	.byte	$FE
	.byte	$FA
	.byte	$53
	.byte	$03
	.byte	$F8
	.byte	$F0
	.byte	$02
	.byte	$02
	.byte	$00
	.byte	$F0
	.byte	$03
	.byte	$02
	.byte	$F8
	.byte	$F8
	.byte	$12
	.byte	$02
	.byte	$00
	.byte	$F8
	.byte	$13
	.byte	$02
	.byte	$F8
	.byte	$00
	.byte	$22
	.byte	$02
	.byte	$00
	.byte	$00
	.byte	$23
	.byte	$02
	.byte	$F8
	.byte	$08
	.byte	$32
	.byte	$02
	.byte	$00
	.byte	$08
	.byte	$33
	.byte	$02
	.byte	$80
_intrometasprites_12_data:
	.byte	$00
	.byte	$FF
	.byte	$0C
	.byte	$00
	.byte	$00
	.byte	$09
	.byte	$39
	.byte	$01
	.byte	$FA
	.byte	$08
	.byte	$38
	.byte	$01
	.byte	$FB
	.byte	$FE
	.byte	$18
	.byte	$03
	.byte	$FB
	.byte	$06
	.byte	$28
	.byte	$03
	.byte	$00
	.byte	$08
	.byte	$29
	.byte	$03
	.byte	$01
	.byte	$01
	.byte	$61
	.byte	$03
	.byte	$FE
	.byte	$F2
	.byte	$41
	.byte	$03
	.byte	$FE
	.byte	$FA
	.byte	$51
	.byte	$03
	.byte	$F8
	.byte	$F0
	.byte	$00
	.byte	$02
	.byte	$00
	.byte	$F0
	.byte	$01
	.byte	$02
	.byte	$F8
	.byte	$F8
	.byte	$10
	.byte	$02
	.byte	$00
	.byte	$F8
	.byte	$11
	.byte	$02
	.byte	$F8
	.byte	$00
	.byte	$20
	.byte	$02
	.byte	$00
	.byte	$00
	.byte	$21
	.byte	$02
	.byte	$F8
	.byte	$08
	.byte	$30
	.byte	$02
	.byte	$00
	.byte	$08
	.byte	$31
	.byte	$02
	.byte	$80
_metatiles_1:
	.byte	$00
	.byte	$00
	.byte	$00
	.byte	$00
	.byte	$00
	.byte	$C0
	.byte	$C1
	.byte	$D0
	.byte	$D1
	.byte	$01
	.byte	$E0
	.byte	$E1
	.byte	$F0
	.byte	$F1
	.byte	$01
	.byte	$C2
	.byte	$C3
	.byte	$D2
	.byte	$D3
	.byte	$01
	.byte	$E0
	.byte	$E3
	.byte	$F2
	.byte	$F3
	.byte	$01
	.byte	$C4
	.byte	$C5
	.byte	$D4
	.byte	$D5
	.byte	$01
	.byte	$E4
	.byte	$E5
	.byte	$F4
	.byte	$F5
	.byte	$01
	.byte	$00
	.byte	$00
	.byte	$7E
	.byte	$00
	.byte	$01
	.byte	$7C
	.byte	$00
	.byte	$5D
	.byte	$7B
	.byte	$01
	.byte	$5B
	.byte	$5C
	.byte	$5D
	.byte	$5C
	.byte	$01
	.byte	$7E
	.byte	$5B
	.byte	$7C
	.byte	$7C
	.byte	$01
	.byte	$3C
	.byte	$5C
	.byte	$7D
	.byte	$7C
	.byte	$01
	.byte	$7E
	.byte	$7E
	.byte	$7C
	.byte	$7C
	.byte	$01
	.byte	$7E
	.byte	$00
	.byte	$7C
	.byte	$00
	.byte	$01
	.byte	$5B
	.byte	$5C
	.byte	$3E
	.byte	$7F
	.byte	$01
	.byte	$5F
	.byte	$3C
	.byte	$00
	.byte	$7C
	.byte	$01
	.byte	$2F
	.byte	$5B
	.byte	$00
	.byte	$7C
	.byte	$01
	.byte	$5C
	.byte	$5B
	.byte	$7C
	.byte	$7C
	.byte	$01
	.byte	$5C
	.byte	$00
	.byte	$7F
	.byte	$00
	.byte	$01
	.byte	$7C
	.byte	$00
	.byte	$7C
	.byte	$00
	.byte	$01
	.byte	$7D
	.byte	$00
	.byte	$00
	.byte	$00
	.byte	$01
	.byte	$5F
	.byte	$7B
	.byte	$00
	.byte	$00
	.byte	$01
	.byte	$7F
	.byte	$00
	.byte	$7C
	.byte	$00
	.byte	$01
	.byte	$5E
	.byte	$00
	.byte	$00
	.byte	$00
	.byte	$01
	.byte	$5B
	.byte	$7B
	.byte	$7C
	.byte	$00
	.byte	$01
	.byte	$5D
	.byte	$5E
	.byte	$00
	.byte	$00
	.byte	$01
	.byte	$7D
	.byte	$7D
	.byte	$00
	.byte	$00
	.byte	$01
	.byte	$00
	.byte	$7D
	.byte	$00
	.byte	$00
	.byte	$01
	.byte	$5D
	.byte	$5E
	.byte	$00
	.byte	$00
	.byte	$01
	.byte	$5D
	.byte	$3D
	.byte	$00
	.byte	$00
	.byte	$01
	.byte	$7D
	.byte	$7D
	.byte	$00
	.byte	$00
	.byte	$01
	.byte	$00
	.byte	$7D
	.byte	$00
	.byte	$00
	.byte	$01
	.byte	$00
	.byte	$5D
	.byte	$00
	.byte	$00
	.byte	$01
	.byte	$5E
	.byte	$7D
	.byte	$00
	.byte	$00
	.byte	$01
	.byte	$7D
	.byte	$00
	.byte	$00
	.byte	$00
	.byte	$01
	.byte	$7C
	.byte	$00
	.byte	$7C
	.byte	$00
	.byte	$01
	.byte	$00
	.byte	$5F
	.byte	$00
	.byte	$00
	.byte	$01
	.byte	$00
	.byte	$00
	.byte	$7E
	.byte	$00
	.byte	$01
	.byte	$5E
	.byte	$00
	.byte	$00
	.byte	$00
	.byte	$01
	.byte	$00
	.byte	$00
	.byte	$5C
	.byte	$00
	.byte	$01
	.byte	$5D
	.byte	$7B
	.byte	$00
	.byte	$00
	.byte	$01
	.byte	$7B
	.byte	$7B
	.byte	$00
	.byte	$00
	.byte	$01
	.byte	$5E
	.byte	$00
	.byte	$00
	.byte	$00
	.byte	$01
	.byte	$00
	.byte	$00
	.byte	$7E
	.byte	$00
	.byte	$01
_room_1:
	.byte	$10
	.byte	$10
	.byte	$10
	.byte	$10
	.byte	$10
	.byte	$10
	.byte	$10
	.byte	$10
	.byte	$10
	.byte	$10
	.byte	$10
	.byte	$10
	.byte	$10
	.byte	$10
	.byte	$10
	.byte	$10
	.byte	$10
	.byte	$10
	.byte	$10
	.byte	$10
	.byte	$14
	.byte	$12
	.byte	$12
	.byte	$10
	.byte	$10
	.byte	$10
	.byte	$10
	.byte	$14
	.byte	$12
	.byte	$10
	.byte	$14
	.byte	$12
	.byte	$10
	.byte	$10
	.byte	$10
	.byte	$14
	.byte	$01
	.byte	$23
	.byte	$0A
	.byte	$10
	.byte	$14
	.byte	$14
	.byte	$07
	.byte	$02
	.byte	$02
	.byte	$07
	.byte	$0B
	.byte	$0A
	.byte	$10
	.byte	$10
	.byte	$10
	.byte	$09
	.byte	$25
	.byte	$24
	.byte	$01
	.byte	$07
	.byte	$01
	.byte	$1A
	.byte	$15
	.byte	$15
	.byte	$15
	.byte	$19
	.byte	$02
	.byte	$0A
	.byte	$10
	.byte	$10
	.byte	$10
	.byte	$14
	.byte	$01
	.byte	$25
	.byte	$01
	.byte	$0B
	.byte	$02
	.byte	$16
	.byte	$28
	.byte	$1F
	.byte	$00
	.byte	$17
	.byte	$23
	.byte	$11
	.byte	$10
	.byte	$10
	.byte	$10
	.byte	$13
	.byte	$01
	.byte	$02
	.byte	$01
	.byte	$01
	.byte	$01
	.byte	$16
	.byte	$00
	.byte	$00
	.byte	$1E
	.byte	$17
	.byte	$24
	.byte	$12
	.byte	$10
	.byte	$10
	.byte	$10
	.byte	$10
	.byte	$04
	.byte	$11
	.byte	$13
	.byte	$01
	.byte	$01
	.byte	$1B
	.byte	$18
	.byte	$00
	.byte	$18
	.byte	$1C
	.byte	$01
	.byte	$11
	.byte	$10
	.byte	$10
	.byte	$10
	.byte	$10
	.byte	$10
	.byte	$10
	.byte	$09
	.byte	$02
	.byte	$02
	.byte	$01
	.byte	$00
	.byte	$01
	.byte	$26
	.byte	$01
	.byte	$01
	.byte	$10
	.byte	$10
	.byte	$10
	.byte	$10
	.byte	$10
	.byte	$10
	.byte	$10
	.byte	$13
	.byte	$05
	.byte	$0B
	.byte	$01
	.byte	$01
	.byte	$01
	.byte	$01
	.byte	$01
	.byte	$01
	.byte	$12
	.byte	$10
	.byte	$10
	.byte	$10
	.byte	$10
	.byte	$10
	.byte	$10
	.byte	$10
	.byte	$10
	.byte	$13
	.byte	$01
	.byte	$02
	.byte	$01
	.byte	$01
	.byte	$01
	.byte	$01
	.byte	$25
_LEVEL_1_PUMP:
	.byte	$13
	.byte	$00
	.byte	$13
	.byte	$12
	.byte	$22
	.byte	$23
	.byte	$03
	.byte	$15
	.byte	$16
	.byte	$17
	.byte	$18
	.byte	$19
	.byte	$1A
	.byte	$1B
	.byte	$2C
	.byte	$2D
	.byte	$00
	.byte	$13
	.byte	$13
	.byte	$32
	.byte	$03
	.byte	$03
	.byte	$25
	.byte	$26
	.byte	$27
	.byte	$28
	.byte	$29
	.byte	$2A
	.byte	$2B
	.byte	$03
	.byte	$3D
	.byte	$00
	.byte	$13
	.byte	$13
	.byte	$42
	.byte	$03
	.byte	$03
	.byte	$35
	.byte	$36
	.byte	$37
	.byte	$38
	.byte	$39
	.byte	$3A
	.byte	$3B
	.byte	$03
	.byte	$4D
	.byte	$00
	.byte	$13
	.byte	$13
	.byte	$42
	.byte	$03
	.byte	$44
	.byte	$45
	.byte	$46
	.byte	$47
	.byte	$48
	.byte	$49
	.byte	$4A
	.byte	$4B
	.byte	$03
	.byte	$4D
	.byte	$00
	.byte	$13
	.byte	$13
	.byte	$52
	.byte	$53
	.byte	$54
	.byte	$55
	.byte	$56
	.byte	$57
	.byte	$58
	.byte	$59
	.byte	$5A
	.byte	$5B
	.byte	$5C
	.byte	$5D
	.byte	$00
	.byte	$13
	.byte	$13
	.byte	$62
	.byte	$63
	.byte	$64
	.byte	$65
	.byte	$66
	.byte	$67
	.byte	$68
	.byte	$69
	.byte	$6A
	.byte	$6B
	.byte	$6C
	.byte	$6D
	.byte	$00
	.byte	$13
	.byte	$14
	.byte	$73
	.byte	$74
	.byte	$75
	.byte	$76
	.byte	$77
	.byte	$78
	.byte	$79
	.byte	$7A
	.byte	$7B
	.byte	$7C
	.byte	$00
	.byte	$13
	.byte	$15
	.byte	$83
	.byte	$84
	.byte	$85
	.byte	$86
	.byte	$87
	.byte	$88
	.byte	$89
	.byte	$8A
	.byte	$8B
	.byte	$8C
	.byte	$00
	.byte	$13
	.byte	$13
	.byte	$91
	.byte	$92
	.byte	$93
	.byte	$94
	.byte	$95
	.byte	$96
	.byte	$97
	.byte	$98
	.byte	$99
	.byte	$9A
	.byte	$9B
	.byte	$9C
	.byte	$9D
	.byte	$9E
	.byte	$00
	.byte	$13
	.byte	$11
	.byte	$A1
	.byte	$A2
	.byte	$A3
	.byte	$A4
	.byte	$A5
	.byte	$01
	.byte	$A7
	.byte	$A8
	.byte	$A9
	.byte	$AA
	.byte	$AB
	.byte	$AC
	.byte	$AD
	.byte	$AE
	.byte	$00
	.byte	$13
	.byte	$11
	.byte	$B1
	.byte	$B2
	.byte	$B3
	.byte	$B4
	.byte	$B5
	.byte	$B6
	.byte	$B7
	.byte	$B8
	.byte	$B9
	.byte	$BA
	.byte	$BB
	.byte	$BC
	.byte	$BD
	.byte	$BE
	.byte	$00
	.byte	$13
	.byte	$11
	.byte	$B0
	.byte	$01
	.byte	$13
	.byte	$0B
	.byte	$BF
	.byte	$60
	.byte	$13
	.byte	$11
	.byte	$B0
	.byte	$81
	.byte	$07
	.byte	$08
	.byte	$09
	.byte	$0A
	.byte	$0B
	.byte	$0B
	.byte	$0C
	.byte	$0D
	.byte	$0E
	.byte	$0F
	.byte	$71
	.byte	$9F
	.byte	$60
	.byte	$13
	.byte	$11
	.byte	$B0
	.byte	$81
	.byte	$06
	.byte	$20
	.byte	$21
	.byte	$30
	.byte	$30
	.byte	$31
	.byte	$40
	.byte	$41
	.byte	$50
	.byte	$05
	.byte	$71
	.byte	$BF
	.byte	$60
	.byte	$13
	.byte	$11
	.byte	$90
	.byte	$81
	.byte	$02
	.byte	$1E
	.byte	$1F
	.byte	$1E
	.byte	$1F
	.byte	$1E
	.byte	$1F
	.byte	$1E
	.byte	$1F
	.byte	$02
	.byte	$71
	.byte	$BF
	.byte	$61
	.byte	$61
	.byte	$03
	.byte	$03
	.byte	$61
	.byte	$03
	.byte	$61
	.byte	$13
	.byte	$05
	.byte	$03
	.byte	$03
	.byte	$61
	.byte	$03
	.byte	$61
	.byte	$61
	.byte	$A0
	.byte	$81
	.byte	$02
	.byte	$2E
	.byte	$2F
	.byte	$2E
	.byte	$2F
	.byte	$2E
	.byte	$2F
	.byte	$2E
	.byte	$2F
	.byte	$02
	.byte	$3C
	.byte	$BF
	.byte	$02
	.byte	$13
	.byte	$05
	.byte	$03
	.byte	$03
	.byte	$02
	.byte	$02
	.byte	$03
	.byte	$03
	.byte	$02
	.byte	$02
	.byte	$03
	.byte	$03
	.byte	$02
	.byte	$02
	.byte	$B0
	.byte	$81
	.byte	$02
	.byte	$3E
	.byte	$3F
	.byte	$3E
	.byte	$3F
	.byte	$3E
	.byte	$3F
	.byte	$3E
	.byte	$3F
	.byte	$02
	.byte	$4C
	.byte	$9F
	.byte	$02
	.byte	$04
	.byte	$02
	.byte	$13
	.byte	$02
	.byte	$04
	.byte	$03
	.byte	$03
	.byte	$02
	.byte	$04
	.byte	$03
	.byte	$03
	.byte	$02
	.byte	$04
	.byte	$03
	.byte	$03
	.byte	$04
	.byte	$02
	.byte	$B0
	.byte	$81
	.byte	$02
	.byte	$4E
	.byte	$4F
	.byte	$4E
	.byte	$4F
	.byte	$4E
	.byte	$4F
	.byte	$4E
	.byte	$4F
	.byte	$02
	.byte	$71
	.byte	$AF
	.byte	$03
	.byte	$13
	.byte	$0C
	.byte	$70
	.byte	$03
	.byte	$13
	.byte	$03
	.byte	$B0
	.byte	$81
	.byte	$43
	.byte	$01
	.byte	$7D
	.byte	$01
	.byte	$13
	.byte	$05
	.byte	$33
	.byte	$71
	.byte	$BF
	.byte	$03
	.byte	$13
	.byte	$11
	.byte	$90
	.byte	$81
	.byte	$06
	.byte	$10
	.byte	$31
	.byte	$30
	.byte	$30
	.byte	$21
	.byte	$11
	.byte	$41
	.byte	$50
	.byte	$05
	.byte	$71
	.byte	$BF
	.byte	$03
	.byte	$13
	.byte	$04
	.byte	$70
	.byte	$03
	.byte	$70
	.byte	$13
	.byte	$05
	.byte	$03
	.byte	$03
	.byte	$70
	.byte	$13
	.byte	$02
	.byte	$B0
	.byte	$81
	.byte	$02
	.byte	$1E
	.byte	$1F
	.byte	$1E
	.byte	$1F
	.byte	$1E
	.byte	$1F
	.byte	$1E
	.byte	$1F
	.byte	$02
	.byte	$71
	.byte	$BF
	.byte	$03
	.byte	$13
	.byte	$03
	.byte	$12
	.byte	$60
	.byte	$13
	.byte	$0C
	.byte	$B0
	.byte	$81
	.byte	$02
	.byte	$2E
	.byte	$2F
	.byte	$2E
	.byte	$2F
	.byte	$2E
	.byte	$2F
	.byte	$2E
	.byte	$2F
	.byte	$02
	.byte	$3C
	.byte	$BF
	.byte	$03
	.byte	$13
	.byte	$03
	.byte	$24
	.byte	$60
	.byte	$13
	.byte	$0C
	.byte	$B0
	.byte	$81
	.byte	$02
	.byte	$3E
	.byte	$3F
	.byte	$3E
	.byte	$3F
	.byte	$3E
	.byte	$3F
	.byte	$3E
	.byte	$3F
	.byte	$02
	.byte	$4C
	.byte	$BF
	.byte	$03
	.byte	$13
	.byte	$04
	.byte	$24
	.byte	$60
	.byte	$13
	.byte	$0A
	.byte	$34
	.byte	$B0
	.byte	$81
	.byte	$02
	.byte	$4E
	.byte	$4F
	.byte	$4E
	.byte	$4F
	.byte	$4E
	.byte	$4F
	.byte	$4E
	.byte	$4F
	.byte	$02
	.byte	$71
	.byte	$BF
	.byte	$03
	.byte	$70
	.byte	$03
	.byte	$13
	.byte	$04
	.byte	$61
	.byte	$03
	.byte	$24
	.byte	$60
	.byte	$13
	.byte	$05
	.byte	$34
	.byte	$70
	.byte	$B0
	.byte	$81
	.byte	$43
	.byte	$01
	.byte	$09
	.byte	$0A
	.byte	$0B
	.byte	$0B
	.byte	$0C
	.byte	$0D
	.byte	$01
	.byte	$33
	.byte	$71
	.byte	$AF
	.byte	$03
	.byte	$13
	.byte	$09
	.byte	$61
	.byte	$13
	.byte	$04
	.byte	$03
	.byte	$13
	.byte	$02
	.byte	$B0
	.byte	$01
	.byte	$07
	.byte	$08
	.byte	$09
	.byte	$0A
	.byte	$0B
	.byte	$0B
	.byte	$0C
	.byte	$0D
	.byte	$0E
	.byte	$0F
	.byte	$01
	.byte	$BF
	.byte	$03
	.byte	$13
	.byte	$02
	.byte	$70
	.byte	$03
	.byte	$13
	.byte	$0D
	.byte	$80
	.byte	$A2
	.byte	$A3
	.byte	$A4
	.byte	$A5
	.byte	$01
	.byte	$13
	.byte	$02
	.byte	$A9
	.byte	$AA
	.byte	$AB
	.byte	$AC
	.byte	$AD
	.byte	$8D
	.byte	$03
	.byte	$13
	.byte	$02
	.byte	$61
	.byte	$03
	.byte	$13
	.byte	$0D
	.byte	$B1
	.byte	$B2
	.byte	$B3
	.byte	$B4
	.byte	$B5
	.byte	$B6
	.byte	$B7
	.byte	$B8
	.byte	$B9
	.byte	$BA
	.byte	$BB
	.byte	$BC
	.byte	$BD
	.byte	$BE
	.byte	$03
	.byte	$13
	.byte	$0E
	.byte	$70
	.byte	$03
	.byte	$03
	.byte	$B0
	.byte	$01
	.byte	$01
	.byte	$82
	.byte	$30
	.byte	$51
	.byte	$31
	.byte	$20
	.byte	$51
	.byte	$20
	.byte	$82
	.byte	$01
	.byte	$01
	.byte	$BF
	.byte	$03
	.byte	$13
	.byte	$11
	.byte	$B0
	.byte	$01
	.byte	$13
	.byte	$0A
	.byte	$7D
	.byte	$BF
	.byte	$00
	.byte	$13
	.byte	$04
	.byte	$54
	.byte	$55
	.byte	$01
	.byte	$00
	.byte	$13
	.byte	$04
	.byte	$05
	.byte	$05
	.byte	$01
	.byte	$00
	.byte	$13
	.byte	$07
	.byte	$FF
	.byte	$13
	.byte	$03
	.byte	$33
	.byte	$A0
	.byte	$A0
	.byte	$20
	.byte	$FA
	.byte	$FE
	.byte	$13
	.byte	$02
	.byte	$32
	.byte	$0A
	.byte	$0A
	.byte	$02
	.byte	$FF
	.byte	$13
	.byte	$03
	.byte	$33
	.byte	$AA
	.byte	$AA
	.byte	$22
	.byte	$FF
	.byte	$13
	.byte	$03
	.byte	$33
	.byte	$00
	.byte	$13
	.byte	$02
	.byte	$0F
	.byte	$13
	.byte	$03
	.byte	$03
	.byte	$00
	.byte	$00
	.byte	$00
	.byte	$13
	.byte	$00
_evaluation_rle:
	.byte	$01
	.byte	$00
	.byte	$01
	.byte	$1F
	.byte	$90
	.byte	$00
	.byte	$01
	.byte	$22
	.byte	$47
	.byte	$6F
	.byte	$61
	.byte	$6C
	.byte	$2E
	.byte	$01
	.byte	$0C
	.byte	$00
	.byte	$01
	.byte	$23
	.byte	$87
	.byte	$00
	.byte	$87
	.byte	$00
	.byte	$01
	.byte	$47
	.byte	$53
	.byte	$70
	.byte	$65
	.byte	$65
	.byte	$64
	.byte	$2E
	.byte	$01
	.byte	$0B
	.byte	$00
	.byte	$01
	.byte	$0A
	.byte	$F0
	.byte	$00
	.byte	$01
	.byte	$22
	.byte	$41
	.byte	$63
	.byte	$63
	.byte	$75
	.byte	$72
	.byte	$61
	.byte	$63
	.byte	$79
	.byte	$2E
	.byte	$01
	.byte	$08
	.byte	$00
	.byte	$01
	.byte	$13
	.byte	$CF
	.byte	$00
	.byte	$01
	.byte	$19
	.byte	$53
	.byte	$74
	.byte	$79
	.byte	$6C
	.byte	$65
	.byte	$2E
	.byte	$01
	.byte	$0B
	.byte	$00
	.byte	$01
	.byte	$6B
	.byte	$04
	.byte	$05
	.byte	$00
	.byte	$01
	.byte	$0A
	.byte	$2D
	.byte	$41
	.byte	$4C
	.byte	$2D
	.byte	$00
	.byte	$01
	.byte	$0A
	.byte	$0A
	.byte	$0B
	.byte	$00
	.byte	$00
	.byte	$14
	.byte	$00
	.byte	$01
	.byte	$1A
	.byte	$1A
	.byte	$1B
	.byte	$00
	.byte	$00
	.byte	$16
	.byte	$00
	.byte	$01
	.byte	$12
	.byte	$80
	.byte	$81
	.byte	$82
	.byte	$83
	.byte	$84
	.byte	$85
	.byte	$86
	.byte	$87
	.byte	$D7
	.byte	$16
	.byte	$00
	.byte	$00
	.byte	$16
	.byte	$00
	.byte	$01
	.byte	$12
	.byte	$90
	.byte	$91
	.byte	$92
	.byte	$93
	.byte	$94
	.byte	$95
	.byte	$96
	.byte	$97
	.byte	$D7
	.byte	$16
	.byte	$00
	.byte	$00
	.byte	$16
	.byte	$00
	.byte	$01
	.byte	$12
	.byte	$A0
	.byte	$A1
	.byte	$A2
	.byte	$A3
	.byte	$A4
	.byte	$A5
	.byte	$A6
	.byte	$A7
	.byte	$D7
	.byte	$16
	.byte	$00
	.byte	$00
	.byte	$16
	.byte	$00
	.byte	$01
	.byte	$12
	.byte	$B0
	.byte	$B1
	.byte	$B2
	.byte	$B3
	.byte	$B4
	.byte	$B5
	.byte	$B6
	.byte	$B7
	.byte	$D7
	.byte	$16
	.byte	$00
	.byte	$00
	.byte	$16
	.byte	$00
	.byte	$01
	.byte	$12
	.byte	$C0
	.byte	$C1
	.byte	$C2
	.byte	$C3
	.byte	$C4
	.byte	$C5
	.byte	$C6
	.byte	$C7
	.byte	$D7
	.byte	$16
	.byte	$00
	.byte	$00
	.byte	$16
	.byte	$00
	.byte	$01
	.byte	$12
	.byte	$D0
	.byte	$D1
	.byte	$D2
	.byte	$D3
	.byte	$D4
	.byte	$D5
	.byte	$D6
	.byte	$D7
	.byte	$D7
	.byte	$16
	.byte	$00
	.byte	$00
	.byte	$16
	.byte	$00
	.byte	$01
	.byte	$13
	.byte	$E1
	.byte	$BC
	.byte	$BD
	.byte	$BE
	.byte	$BF
	.byte	$E6
	.byte	$CF
	.byte	$D7
	.byte	$16
	.byte	$00
	.byte	$00
	.byte	$16
	.byte	$00
	.byte	$01
	.byte	$12
	.byte	$D8
	.byte	$D9
	.byte	$DA
	.byte	$DB
	.byte	$DC
	.byte	$DD
	.byte	$DE
	.byte	$DF
	.byte	$D7
	.byte	$16
	.byte	$00
	.byte	$00
	.byte	$16
	.byte	$00
	.byte	$01
	.byte	$12
	.byte	$E8
	.byte	$E9
	.byte	$EA
	.byte	$EB
	.byte	$EC
	.byte	$ED
	.byte	$EE
	.byte	$EF
	.byte	$D7
	.byte	$16
	.byte	$00
	.byte	$00
	.byte	$16
	.byte	$00
	.byte	$01
	.byte	$12
	.byte	$F8
	.byte	$F9
	.byte	$FA
	.byte	$FB
	.byte	$FC
	.byte	$FD
	.byte	$FE
	.byte	$FF
	.byte	$D7
	.byte	$16
	.byte	$00
	.byte	$00
	.byte	$07
	.byte	$17
	.byte	$01
	.byte	$1B
	.byte	$19
	.byte	$00
	.byte	$01
	.byte	$22
	.byte	$F0
	.byte	$F1
	.byte	$00
	.byte	$01
	.byte	$16
	.byte	$F7
	.byte	$00
	.byte	$01
	.byte	$23
	.byte	$55
	.byte	$A5
	.byte	$01
	.byte	$02
	.byte	$A1
	.byte	$20
	.byte	$00
	.byte	$00
	.byte	$90
	.byte	$A0
	.byte	$01
	.byte	$03
	.byte	$24
	.byte	$00
	.byte	$00
	.byte	$55
	.byte	$AA
	.byte	$01
	.byte	$03
	.byte	$62
	.byte	$50
	.byte	$00
	.byte	$A5
	.byte	$55
	.byte	$01
	.byte	$05
	.byte	$A5
	.byte	$66
	.byte	$55
	.byte	$01
	.byte	$05
	.byte	$99
	.byte	$66
	.byte	$55
	.byte	$01
	.byte	$04
	.byte	$45
	.byte	$99
	.byte	$AA
	.byte	$A5
	.byte	$01
	.byte	$05
	.byte	$A9
	.byte	$05
	.byte	$01
	.byte	$06
	.byte	$05
	.byte	$01
	.byte	$00
_talkingtime_rle:
	.byte	$01
	.byte	$00
	.byte	$01
	.byte	$1F
	.byte	$90
	.byte	$00
	.byte	$01
	.byte	$1F
	.byte	$04
	.byte	$05
	.byte	$00
	.byte	$01
	.byte	$19
	.byte	$0A
	.byte	$0B
	.byte	$00
	.byte	$00
	.byte	$14
	.byte	$00
	.byte	$01
	.byte	$1A
	.byte	$1A
	.byte	$1B
	.byte	$00
	.byte	$00
	.byte	$16
	.byte	$00
	.byte	$01
	.byte	$1B
	.byte	$16
	.byte	$00
	.byte	$00
	.byte	$16
	.byte	$00
	.byte	$01
	.byte	$1B
	.byte	$16
	.byte	$00
	.byte	$00
	.byte	$16
	.byte	$00
	.byte	$01
	.byte	$1B
	.byte	$16
	.byte	$00
	.byte	$F0
	.byte	$16
	.byte	$00
	.byte	$01
	.byte	$1B
	.byte	$16
	.byte	$00
	.byte	$00
	.byte	$16
	.byte	$00
	.byte	$01
	.byte	$1B
	.byte	$16
	.byte	$00
	.byte	$00
	.byte	$16
	.byte	$00
	.byte	$01
	.byte	$06
	.byte	$CF
	.byte	$00
	.byte	$01
	.byte	$13
	.byte	$16
	.byte	$00
	.byte	$00
	.byte	$16
	.byte	$00
	.byte	$01
	.byte	$1B
	.byte	$16
	.byte	$00
	.byte	$00
	.byte	$16
	.byte	$00
	.byte	$01
	.byte	$1B
	.byte	$16
	.byte	$00
	.byte	$00
	.byte	$16
	.byte	$00
	.byte	$01
	.byte	$1B
	.byte	$16
	.byte	$00
	.byte	$00
	.byte	$16
	.byte	$00
	.byte	$01
	.byte	$1B
	.byte	$16
	.byte	$00
	.byte	$00
	.byte	$16
	.byte	$00
	.byte	$01
	.byte	$1B
	.byte	$16
	.byte	$00
	.byte	$00
	.byte	$07
	.byte	$17
	.byte	$01
	.byte	$1B
	.byte	$19
	.byte	$00
	.byte	$01
	.byte	$1C
	.byte	$87
	.byte	$00
	.byte	$01
	.byte	$38
	.byte	$80
	.byte	$81
	.byte	$82
	.byte	$83
	.byte	$84
	.byte	$85
	.byte	$86
	.byte	$87
	.byte	$00
	.byte	$01
	.byte	$17
	.byte	$90
	.byte	$91
	.byte	$92
	.byte	$93
	.byte	$94
	.byte	$95
	.byte	$96
	.byte	$97
	.byte	$00
	.byte	$01
	.byte	$17
	.byte	$A0
	.byte	$A1
	.byte	$A2
	.byte	$A3
	.byte	$A4
	.byte	$A5
	.byte	$A6
	.byte	$A7
	.byte	$00
	.byte	$01
	.byte	$17
	.byte	$B0
	.byte	$B1
	.byte	$B2
	.byte	$B3
	.byte	$B4
	.byte	$B5
	.byte	$B6
	.byte	$B7
	.byte	$00
	.byte	$01
	.byte	$17
	.byte	$C0
	.byte	$C1
	.byte	$C2
	.byte	$C3
	.byte	$C4
	.byte	$C5
	.byte	$C6
	.byte	$C7
	.byte	$00
	.byte	$01
	.byte	$17
	.byte	$D0
	.byte	$D1
	.byte	$D2
	.byte	$D3
	.byte	$D4
	.byte	$D5
	.byte	$D6
	.byte	$D7
	.byte	$00
	.byte	$01
	.byte	$18
	.byte	$E1
	.byte	$E2
	.byte	$E3
	.byte	$E4
	.byte	$E5
	.byte	$E6
	.byte	$CF
	.byte	$00
	.byte	$01
	.byte	$17
	.byte	$D8
	.byte	$D9
	.byte	$DA
	.byte	$DB
	.byte	$DC
	.byte	$DD
	.byte	$DE
	.byte	$DF
	.byte	$00
	.byte	$01
	.byte	$17
	.byte	$E8
	.byte	$E9
	.byte	$EA
	.byte	$EB
	.byte	$EC
	.byte	$ED
	.byte	$EE
	.byte	$EF
	.byte	$00
	.byte	$01
	.byte	$17
	.byte	$F8
	.byte	$F9
	.byte	$FA
	.byte	$FB
	.byte	$FC
	.byte	$FD
	.byte	$FE
	.byte	$FF
	.byte	$00
	.byte	$01
	.byte	$03
	.byte	$F0
	.byte	$F1
	.byte	$00
	.byte	$01
	.byte	$16
	.byte	$F7
	.byte	$00
	.byte	$01
	.byte	$23
	.byte	$AA
	.byte	$01
	.byte	$24
	.byte	$66
	.byte	$55
	.byte	$55
	.byte	$AA
	.byte	$01
	.byte	$04
	.byte	$66
	.byte	$55
	.byte	$55
	.byte	$AA
	.byte	$01
	.byte	$04
	.byte	$66
	.byte	$55
	.byte	$55
	.byte	$0A
	.byte	$01
	.byte	$04
	.byte	$06
	.byte	$05
	.byte	$05
	.byte	$01
	.byte	$00
_gaspump_palette:
	.byte	$2C
	.byte	$05
	.byte	$3D
	.byte	$15
	.byte	$2C
	.byte	$05
	.byte	$37
	.byte	$15
	.byte	$2C
	.byte	$0F
	.byte	$20
	.byte	$11
	.byte	$2C
	.byte	$19
	.byte	$2A
	.byte	$0F
_futurepump_palette:
	.byte	$0F
	.byte	$00
	.byte	$10
	.byte	$30
	.byte	$0F
	.byte	$13
	.byte	$23
	.byte	$31
	.byte	$0F
	.byte	$23
	.byte	$16
	.byte	$26
	.byte	$0F
	.byte	$09
	.byte	$19
	.byte	$29
_talking_time_palette:
	.byte	$0F
	.byte	$20
	.byte	$16
	.byte	$36
	.byte	$0F
	.byte	$05
	.byte	$16
	.byte	$36
	.byte	$0F
	.byte	$00
	.byte	$1B
	.byte	$30
	.byte	$0F
	.byte	$09
	.byte	$19
	.byte	$38
_intro_cutscene_gun_palette:
	.byte	$0F
	.byte	$10
	.byte	$2A
	.byte	$15
	.byte	$0F
	.byte	$10
	.byte	$16
	.byte	$26
	.byte	$0F
	.byte	$00
	.byte	$1B
	.byte	$30
	.byte	$0F
	.byte	$26
	.byte	$00
	.byte	$10
_intro_cutscene_palette:
	.byte	$0F
	.byte	$00
	.byte	$10
	.byte	$30
	.byte	$0F
	.byte	$06
	.byte	$21
	.byte	$31
	.byte	$0F
	.byte	$06
	.byte	$00
	.byte	$38
	.byte	$0F
	.byte	$06
	.byte	$19
	.byte	$29
_gaspump_sprite_palette:
	.byte	$0F
	.byte	$20
	.byte	$16
	.byte	$36
	.byte	$0F
	.byte	$05
	.byte	$16
	.byte	$36
	.byte	$0F
	.byte	$13
	.byte	$0F
	.byte	$36
	.byte	$0F
	.byte	$09
	.byte	$19
	.byte	$29
_fade_1:
	.byte	$0F
	.byte	$04
	.byte	$07
	.byte	$10
	.byte	$0F
	.byte	$04
	.byte	$07
	.byte	$10
	.byte	$0F
	.byte	$04
	.byte	$07
	.byte	$10
	.byte	$0F
	.byte	$04
	.byte	$07
	.byte	$10
_fade_2:
	.byte	$0F
	.byte	$0C
	.byte	$08
	.byte	$2D
	.byte	$0F
	.byte	$0C
	.byte	$08
	.byte	$2D
	.byte	$0F
	.byte	$0C
	.byte	$08
	.byte	$2D
	.byte	$0F
	.byte	$0C
	.byte	$08
	.byte	$2D
.segment	"BANK0"
_intro_cutscene_1:
	.byte	$00
	.byte	$00
	.byte	$00
	.byte	$E0
	.byte	$00
	.byte	$00
	.byte	$00
	.byte	$00
	.byte	$00
	.byte	$00
	.byte	$E0
	.byte	$00
	.byte	$00
	.byte	$00
	.byte	$00
	.byte	$00
	.byte	$E0
	.byte	$00
	.byte	$00
	.byte	$00
	.byte	$00
	.byte	$00
	.byte	$00
	.byte	$00
	.byte	$00
	.byte	$E0
	.byte	$00
	.byte	$00
	.byte	$00
	.byte	$82
	.byte	$00
	.byte	$00
	.byte	$88
	.byte	$00
	.byte	$00
	.byte	$00
	.byte	$00
	.byte	$00
	.byte	$2A
	.byte	$00
	.byte	$00
	.byte	$00
	.byte	$00
	.byte	$00
	.byte	$00
	.byte	$00
	.byte	$00
	.byte	$00
	.byte	$00
	.byte	$00
	.byte	$00
	.byte	$00
	.byte	$00
	.byte	$00
	.byte	$00
	.byte	$00
	.byte	$00
	.byte	$00
	.byte	$00
	.byte	$00
	.byte	$00
	.byte	$00
	.byte	$00
	.byte	$88
	.byte	$00
	.byte	$00
	.byte	$00
	.byte	$00
	.byte	$00
	.byte	$00
	.byte	$00
	.byte	$00
	.byte	$00
	.byte	$00
	.byte	$00
	.byte	$00
	.byte	$00
	.byte	$00
	.byte	$00
	.byte	$00
	.byte	$00
	.byte	$00
	.byte	$00
	.byte	$2A
	.byte	$88
	.byte	$00
	.byte	$00
	.byte	$88
	.byte	$00
	.byte	$00
	.byte	$00
	.byte	$00
	.byte	$88
	.byte	$00
	.byte	$00
	.byte	$00
	.byte	$00
	.byte	$00
	.byte	$00
	.byte	$88
	.byte	$00
	.byte	$00
	.byte	$00
	.byte	$00
	.byte	$88
	.byte	$00
	.byte	$00
	.byte	$00
	.byte	$00
	.byte	$88
	.byte	$00
	.byte	$00
	.byte	$00
	.byte	$00
	.byte	$00
	.byte	$00
	.byte	$00
	.byte	$00
	.byte	$00
	.byte	$00
	.byte	$00
	.byte	$00
	.byte	$00
	.byte	$00
	.byte	$00
	.byte	$00
	.byte	$00
	.byte	$00
	.byte	$00
	.byte	$00
	.byte	$00
	.byte	$00
	.byte	$00
	.byte	$00
	.byte	$E0
	.byte	$00
	.byte	$00
	.byte	$00
	.byte	$00
	.byte	$00
	.byte	$00
	.byte	$00
	.byte	$00
	.byte	$00
	.byte	$00
	.byte	$00
	.byte	$00
	.byte	$00
	.byte	$00
	.byte	$00
	.byte	$00
	.byte	$00
	.byte	$00
	.byte	$00
	.byte	$2A
	.byte	$00
	.byte	$00
	.byte	$00
	.byte	$00
	.byte	$00
	.byte	$00
	.byte	$00
	.byte	$00
	.byte	$00
	.byte	$00
	.byte	$00
	.byte	$00
	.byte	$00
	.byte	$00
	.byte	$00
	.byte	$00
	.byte	$00
	.byte	$00
	.byte	$00
	.byte	$00
	.byte	$00
	.byte	$88
	.byte	$00
	.byte	$00
	.byte	$00
	.byte	$00
	.byte	$E0
	.byte	$88
	.byte	$00
	.byte	$00
	.byte	$00
	.byte	$00
	.byte	$00
	.byte	$E0
	.byte	$00
	.byte	$00
	.byte	$00
	.byte	$00
	.byte	$00
	.byte	$00
	.byte	$00
	.byte	$00
	.byte	$00
	.byte	$00
	.byte	$82
	.byte	$00
	.byte	$00
	.byte	$E0
	.byte	$00
	.byte	$00
	.byte	$7B
	.byte	$00
	.byte	$00
	.byte	$00
	.byte	$00
	.byte	$00
	.byte	$00
	.byte	$00
	.byte	$00
	.byte	$00
	.byte	$88
	.byte	$00
	.byte	$00
	.byte	$00
	.byte	$00
	.byte	$00
	.byte	$00
	.byte	$00
	.byte	$88
	.byte	$00
	.byte	$00
	.byte	$88
	.byte	$00
	.byte	$00
	.byte	$00
	.byte	$88
	.byte	$00
	.byte	$00
	.byte	$00
	.byte	$00
	.byte	$00
	.byte	$8E
	.byte	$01
	.byte	$8F
	.byte	$00
	.byte	$00
	.byte	$00
	.byte	$00
	.byte	$00
	.byte	$00
	.byte	$00
	.byte	$00
	.byte	$00
	.byte	$00
	.byte	$00
	.byte	$00
	.byte	$88
	.byte	$00
	.byte	$00
	.byte	$00
	.byte	$00
	.byte	$00
	.byte	$00
	.byte	$00
	.byte	$00
	.byte	$00
	.byte	$8E
	.byte	$00
	.byte	$00
	.byte	$00
	.byte	$00
	.byte	$00
	.byte	$A9
	.byte	$AC
	.byte	$AC
	.byte	$FA
	.byte	$00
	.byte	$00
	.byte	$88
	.byte	$00
	.byte	$00
	.byte	$00
	.byte	$00
	.byte	$00
	.byte	$00
	.byte	$00
	.byte	$00
	.byte	$00
	.byte	$00
	.byte	$00
	.byte	$00
	.byte	$00
	.byte	$00
	.byte	$00
	.byte	$E0
	.byte	$00
	.byte	$00
	.byte	$00
	.byte	$DF
	.byte	$00
	.byte	$00
	.byte	$00
	.byte	$00
	.byte	$00
	.byte	$A9
	.byte	$AC
	.byte	$AC
	.byte	$FA
	.byte	$00
	.byte	$00
	.byte	$00
	.byte	$00
	.byte	$00
	.byte	$00
	.byte	$00
	.byte	$00
	.byte	$00
	.byte	$7B
	.byte	$00
	.byte	$00
	.byte	$00
	.byte	$88
	.byte	$00
	.byte	$00
	.byte	$00
	.byte	$00
	.byte	$00
	.byte	$00
	.byte	$00
	.byte	$8E
	.byte	$01
	.byte	$8F
	.byte	$00
	.byte	$00
	.byte	$00
	.byte	$00
	.byte	$8E
	.byte	$01
	.byte	$01
	.byte	$01
	.byte	$8F
	.byte	$00
	.byte	$00
	.byte	$A9
	.byte	$F6
	.byte	$F6
	.byte	$F6
	.byte	$00
	.byte	$8E
	.byte	$01
	.byte	$8F
	.byte	$00
	.byte	$00
	.byte	$00
	.byte	$00
	.byte	$00
	.byte	$00
	.byte	$00
	.byte	$00
	.byte	$88
	.byte	$00
	.byte	$FD
	.byte	$FD
	.byte	$FD
	.byte	$00
	.byte	$00
	.byte	$88
	.byte	$A9
	.byte	$AC
	.byte	$AC
	.byte	$AC
	.byte	$AC
	.byte	$FA
	.byte	$00
	.byte	$00
	.byte	$A9
	.byte	$F4
	.byte	$FD
	.byte	$F5
	.byte	$A9
	.byte	$5F
	.byte	$5F
	.byte	$5F
	.byte	$00
	.byte	$8E
	.byte	$01
	.byte	$01
	.byte	$01
	.byte	$01
	.byte	$00
	.byte	$00
	.byte	$00
	.byte	$00
	.byte	$F4
	.byte	$DF
	.byte	$F5
	.byte	$00
	.byte	$D5
	.byte	$00
	.byte	$A9
	.byte	$AC
	.byte	$AC
	.byte	$AC
	.byte	$AC
	.byte	$FA
	.byte	$F6
	.byte	$F6
	.byte	$F6
	.byte	$F6
	.byte	$F6
	.byte	$F6
	.byte	$A9
	.byte	$5D
	.byte	$FC
	.byte	$5E
	.byte	$A9
	.byte	$DF
	.byte	$DF
	.byte	$DF
	.byte	$DF
	.byte	$DF
	.byte	$00
	.byte	$00
	.byte	$00
	.byte	$00
	.byte	$F4
	.byte	$FD
	.byte	$F5
	.byte	$00
	.byte	$D5
	.byte	$00
	.byte	$A9
	.byte	$AC
	.byte	$AC
	.byte	$AC
	.byte	$AC
	.byte	$FA
	.byte	$F4
	.byte	$FD
	.byte	$FD
	.byte	$FD
	.byte	$FD
	.byte	$F5
	.byte	$AC
	.byte	$AC
	.byte	$FA
	.byte	$5E
	.byte	$A9
	.byte	$DF
	.byte	$FC
	.byte	$FC
	.byte	$DF
	.byte	$FC
	.byte	$A9
	.byte	$F6
	.byte	$F6
	.byte	$00
	.byte	$F4
	.byte	$DF
	.byte	$F5
	.byte	$00
	.byte	$D5
	.byte	$00
	.byte	$A9
	.byte	$AC
	.byte	$AC
	.byte	$AC
	.byte	$AC
	.byte	$FA
	.byte	$F4
	.byte	$FD
	.byte	$FD
	.byte	$FD
	.byte	$FD
	.byte	$F5
	.byte	$AC
	.byte	$AC
	.byte	$FA
	.byte	$5E
	.byte	$A9
	.byte	$DF
	.byte	$DF
	.byte	$DF
	.byte	$DF
	.byte	$DF
	.byte	$A9
	.byte	$FD
	.byte	$FD
	.byte	$00
	.byte	$F4
	.byte	$FD
	.byte	$F5
	.byte	$00
	.byte	$D5
	.byte	$D5
	.byte	$A9
	.byte	$AC
	.byte	$AC
	.byte	$AC
	.byte	$AC
	.byte	$FA
	.byte	$F4
	.byte	$FD
	.byte	$EC
	.byte	$EC
	.byte	$FD
	.byte	$F5
	.byte	$AC
	.byte	$AC
	.byte	$FA
	.byte	$5E
	.byte	$A9
	.byte	$DF
	.byte	$FC
	.byte	$FC
	.byte	$DF
	.byte	$FC
	.byte	$01
	.byte	$01
	.byte	$FD
	.byte	$7F
	.byte	$7F
	.byte	$7F
	.byte	$7F
	.byte	$7F
	.byte	$7F
	.byte	$7F
	.byte	$7F
	.byte	$7F
	.byte	$AC
	.byte	$AC
	.byte	$AC
	.byte	$FA
	.byte	$F4
	.byte	$F5
	.byte	$A9
	.byte	$F4
	.byte	$F4
	.byte	$F5
	.byte	$AC
	.byte	$AC
	.byte	$FA
	.byte	$5E
	.byte	$F6
	.byte	$F6
	.byte	$F6
	.byte	$F6
	.byte	$DF
	.byte	$DF
	.byte	$AC
	.byte	$FA
	.byte	$FD
	.byte	$7D
	.byte	$FC
	.byte	$BE
	.byte	$FC
	.byte	$BE
	.byte	$FC
	.byte	$BE
	.byte	$FC
	.byte	$7E
	.byte	$AC
	.byte	$AC
	.byte	$AC
	.byte	$FA
	.byte	$F4
	.byte	$F5
	.byte	$A9
	.byte	$F4
	.byte	$F4
	.byte	$F5
	.byte	$AC
	.byte	$AC
	.byte	$FA
	.byte	$5E
	.byte	$F4
	.byte	$FD
	.byte	$FD
	.byte	$F5
	.byte	$DF
	.byte	$FC
	.byte	$AC
	.byte	$FA
	.byte	$FD
	.byte	$7D
	.byte	$BE
	.byte	$BE
	.byte	$BE
	.byte	$BE
	.byte	$BE
	.byte	$BE
	.byte	$BE
	.byte	$7E
	.byte	$7F
	.byte	$7F
	.byte	$7F
	.byte	$7F
	.byte	$07
	.byte	$15
	.byte	$00
	.byte	$00
	.byte	$15
	.byte	$1D
	.byte	$AC
	.byte	$AC
	.byte	$FA
	.byte	$5E
	.byte	$F4
	.byte	$FD
	.byte	$FD
	.byte	$F5
	.byte	$DF
	.byte	$DF
	.byte	$AC
	.byte	$FA
	.byte	$FD
	.byte	$7D
	.byte	$FC
	.byte	$BE
	.byte	$FC
	.byte	$BE
	.byte	$FC
	.byte	$BE
	.byte	$FC
	.byte	$7E
	.byte	$7C
	.byte	$7C
	.byte	$7C
	.byte	$7C
	.byte	$1B
	.byte	$00
	.byte	$2F
	.byte	$2F
	.byte	$00
	.byte	$17
	.byte	$AC
	.byte	$AC
	.byte	$FA
	.byte	$5E
	.byte	$F4
	.byte	$FD
	.byte	$FD
	.byte	$F5
	.byte	$DF
	.byte	$FC
	.byte	$AC
	.byte	$FA
	.byte	$FD
	.byte	$7D
	.byte	$BE
	.byte	$BE
	.byte	$BE
	.byte	$BE
	.byte	$F6
	.byte	$F6
	.byte	$F6
	.byte	$F6
	.byte	$BE
	.byte	$BE
	.byte	$BE
	.byte	$BE
	.byte	$7F
	.byte	$7F
	.byte	$7F
	.byte	$7F
	.byte	$00
	.byte	$08
	.byte	$AC
	.byte	$F6
	.byte	$F6
	.byte	$F6
	.byte	$F6
	.byte	$F6
	.byte	$FD
	.byte	$F5
	.byte	$DF
	.byte	$DF
	.byte	$AC
	.byte	$FA
	.byte	$FD
	.byte	$7D
	.byte	$FC
	.byte	$BE
	.byte	$BE
	.byte	$BE
	.byte	$F4
	.byte	$FD
	.byte	$FD
	.byte	$F5
	.byte	$7C
	.byte	$7C
	.byte	$7C
	.byte	$7C
	.byte	$7D
	.byte	$7C
	.byte	$7C
	.byte	$7E
	.byte	$08
	.byte	$13
	.byte	$AC
	.byte	$F4
	.byte	$FD
	.byte	$FD
	.byte	$FD
	.byte	$F5
	.byte	$FD
	.byte	$F5
	.byte	$DF
	.byte	$DF
	.byte	$AC
	.byte	$FA
	.byte	$F6
	.byte	$F6
	.byte	$F6
	.byte	$F6
	.byte	$F7
	.byte	$F7
	.byte	$F4
	.byte	$FD
	.byte	$FD
	.byte	$F5
	.byte	$BE
	.byte	$BE
	.byte	$BE
	.byte	$BE
	.byte	$7D
	.byte	$7C
	.byte	$7C
	.byte	$7E
	.byte	$5F
	.byte	$5F
	.byte	$00
	.byte	$F4
	.byte	$FD
	.byte	$FD
	.byte	$FD
	.byte	$F5
	.byte	$DF
	.byte	$DF
	.byte	$00
	.byte	$00
	.byte	$00
	.byte	$00
	.byte	$F4
	.byte	$FD
	.byte	$FD
	.byte	$F5
	.byte	$F7
	.byte	$F7
	.byte	$F4
	.byte	$FD
	.byte	$FD
	.byte	$F5
	.byte	$7E
	.byte	$F7
	.byte	$F7
	.byte	$7D
	.byte	$7D
	.byte	$7C
	.byte	$7C
	.byte	$7E
	.byte	$5C
	.byte	$5C
	.byte	$00
	.byte	$F4
	.byte	$FD
	.byte	$FD
	.byte	$FD
	.byte	$F5
	.byte	$CF
	.byte	$DF
	.byte	$00
	.byte	$08
	.byte	$D4
	.byte	$00
	.byte	$F4
	.byte	$EC
	.byte	$EC
	.byte	$F5
	.byte	$00
	.byte	$00
	.byte	$F4
	.byte	$EC
	.byte	$EC
	.byte	$F5
	.byte	$7E
	.byte	$F7
	.byte	$F7
	.byte	$7D
	.byte	$7D
	.byte	$7C
	.byte	$7C
	.byte	$7E
	.byte	$00
	.byte	$00
	.byte	$00
	.byte	$F4
	.byte	$FD
	.byte	$EC
	.byte	$FD
	.byte	$F5
	.byte	$00
	.byte	$00
	.byte	$08
	.byte	$D4
	.byte	$E4
	.byte	$1C
	.byte	$EC
	.byte	$CF
	.byte	$CF
	.byte	$EC
	.byte	$00
	.byte	$00
	.byte	$F4
	.byte	$CF
	.byte	$CF
	.byte	$F5
	.byte	$00
	.byte	$00
	.byte	$00
	.byte	$00
	.byte	$7D
	.byte	$CF
	.byte	$CF
	.byte	$7E
	.byte	$00
	.byte	$00
	.byte	$00
	.byte	$EC
	.byte	$EC
	.byte	$CF
	.byte	$EC
	.byte	$EC
	.byte	$00
	.byte	$08
	.byte	$13
	.byte	$E4
	.byte	$10
	.byte	$D4
	.byte	$09
	.byte	$19
	.byte	$19
	.byte	$08
	.byte	$D4
	.byte	$09
	.byte	$19
	.byte	$19
	.byte	$19
	.byte	$19
	.byte	$19
	.byte	$19
	.byte	$19
	.byte	$00
	.byte	$00
	.byte	$00
	.byte	$00
	.byte	$00
	.byte	$19
	.byte	$19
	.byte	$19
	.byte	$19
	.byte	$00
	.byte	$00
	.byte	$19
	.byte	$08
	.byte	$D4
	.byte	$13
	.byte	$2F
	.byte	$D4
	.byte	$13
	.byte	$E4
	.byte	$D4
	.byte	$13
	.byte	$2F
	.byte	$D4
	.byte	$E4
	.byte	$13
	.byte	$2F
	.byte	$2F
	.byte	$D4
	.byte	$13
	.byte	$13
	.byte	$10
	.byte	$13
	.byte	$13
	.byte	$1B
	.byte	$00
	.byte	$17
	.byte	$13
	.byte	$10
	.byte	$2F
	.byte	$2F
	.byte	$D4
	.byte	$1C
	.byte	$19
	.byte	$D4
	.byte	$2F
	.byte	$E4
	.byte	$D4
	.byte	$10
	.byte	$E4
	.byte	$13
	.byte	$13
	.byte	$E4
	.byte	$D4
	.byte	$13
	.byte	$E4
	.byte	$13
	.byte	$D4
	.byte	$10
	.byte	$13
	.byte	$E4
	.byte	$13
	.byte	$2F
	.byte	$13
	.byte	$2F
	.byte	$13
	.byte	$1B
	.byte	$00
	.byte	$16
	.byte	$10
	.byte	$2F
	.byte	$D4
	.byte	$13
	.byte	$E4
	.byte	$13
	.byte	$10
	.byte	$E4
	.byte	$13
	.byte	$10
	.byte	$E4
	.byte	$13
	.byte	$13
	.byte	$13
	.byte	$13
	.byte	$13
	.byte	$E4
	.byte	$13
	.byte	$13
	.byte	$13
	.byte	$E4
	.byte	$13
	.byte	$13
	.byte	$13
	.byte	$13
	.byte	$13
	.byte	$13
	.byte	$13
	.byte	$13
	.byte	$1A
	.byte	$00
	.byte	$16
	.byte	$13
	.byte	$13
	.byte	$E4
	.byte	$13
	.byte	$13
	.byte	$13
	.byte	$13
	.byte	$10
	.byte	$13
	.byte	$13
	.byte	$13
	.byte	$13
	.byte	$13
	.byte	$00
	.byte	$00
	.byte	$00
	.byte	$00
	.byte	$00
	.byte	$00
	.byte	$00
	.byte	$00
	.byte	$00
	.byte	$30
	.byte	$00
	.byte	$A0
	.byte	$00
	.byte	$00
	.byte	$00
	.byte	$00
	.byte	$00
	.byte	$F3
	.byte	$80
	.byte	$AA
	.byte	$80
	.byte	$A0
	.byte	$22
	.byte	$00
	.byte	$00
	.byte	$FF
	.byte	$88
	.byte	$AA
	.byte	$55
	.byte	$99
	.byte	$22
	.byte	$00
	.byte	$11
	.byte	$00
	.byte	$00
	.byte	$5A
	.byte	$F9
	.byte	$B9
	.byte	$66
	.byte	$11
	.byte	$51
	.byte	$10
	.byte	$AA
	.byte	$55
	.byte	$AA
	.byte	$9B
	.byte	$AA
	.byte	$D1
	.byte	$F7
	.byte	$FD
	.byte	$FA
	.byte	$F5
	.byte	$FA
	.byte	$F9
	.byte	$FA
	.byte	$FF
	.byte	$0F
	.byte	$0F
	.byte	$0F
	.byte	$0F
	.byte	$0F
	.byte	$0F
	.byte	$0F
	.byte	$0F
_intro_cutscene_2:
	.byte	$9E
	.byte	$9F
	.byte	$9F
	.byte	$AF
	.byte	$16
	.byte	$D4
	.byte	$13
	.byte	$D4
	.byte	$10
	.byte	$13
	.byte	$10
	.byte	$10
	.byte	$D4
	.byte	$13
	.byte	$10
	.byte	$12
	.byte	$07
	.byte	$00
	.byte	$08
	.byte	$05
	.byte	$10
	.byte	$05
	.byte	$13
	.byte	$13
	.byte	$04
	.byte	$05
	.byte	$D4
	.byte	$05
	.byte	$D4
	.byte	$13
	.byte	$D4
	.byte	$D4
	.byte	$F4
	.byte	$FD
	.byte	$FD
	.byte	$F5
	.byte	$17
	.byte	$E4
	.byte	$13
	.byte	$E4
	.byte	$13
	.byte	$05
	.byte	$D4
	.byte	$13
	.byte	$E4
	.byte	$05
	.byte	$2F
	.byte	$07
	.byte	$00
	.byte	$08
	.byte	$13
	.byte	$10
	.byte	$2F
	.byte	$05
	.byte	$13
	.byte	$04
	.byte	$13
	.byte	$13
	.byte	$E4
	.byte	$13
	.byte	$E4
	.byte	$04
	.byte	$E4
	.byte	$E4
	.byte	$F4
	.byte	$FD
	.byte	$FD
	.byte	$F5
	.byte	$00
	.byte	$15
	.byte	$14
	.byte	$14
	.byte	$1D
	.byte	$13
	.byte	$E4
	.byte	$05
	.byte	$13
	.byte	$2F
	.byte	$00
	.byte	$E0
	.byte	$08
	.byte	$05
	.byte	$13
	.byte	$13
	.byte	$10
	.byte	$13
	.byte	$13
	.byte	$13
	.byte	$04
	.byte	$10
	.byte	$04
	.byte	$10
	.byte	$13
	.byte	$D4
	.byte	$13
	.byte	$D4
	.byte	$EC
	.byte	$EC
	.byte	$EC
	.byte	$EC
	.byte	$09
	.byte	$00
	.byte	$00
	.byte	$19
	.byte	$00
	.byte	$15
	.byte	$15
	.byte	$1D
	.byte	$10
	.byte	$07
	.byte	$F1
	.byte	$00
	.byte	$05
	.byte	$10
	.byte	$13
	.byte	$05
	.byte	$07
	.byte	$8E
	.byte	$9C
	.byte	$01
	.byte	$01
	.byte	$01
	.byte	$8F
	.byte	$06
	.byte	$05
	.byte	$E4
	.byte	$13
	.byte	$E4
	.byte	$10
	.byte	$10
	.byte	$10
	.byte	$10
	.byte	$07
	.byte	$00
	.byte	$08
	.byte	$13
	.byte	$1C
	.byte	$19
	.byte	$18
	.byte	$19
	.byte	$00
	.byte	$00
	.byte	$00
	.byte	$08
	.byte	$05
	.byte	$13
	.byte	$04
	.byte	$13
	.byte	$8E
	.byte	$01
	.byte	$01
	.byte	$9C
	.byte	$CC
	.byte	$CC
	.byte	$CC
	.byte	$B9
	.byte	$06
	.byte	$05
	.byte	$13
	.byte	$05
	.byte	$00
	.byte	$00
	.byte	$00
	.byte	$00
	.byte	$00
	.byte	$08
	.byte	$13
	.byte	$04
	.byte	$13
	.byte	$04
	.byte	$13
	.byte	$13
	.byte	$07
	.byte	$00
	.byte	$00
	.byte	$10
	.byte	$2F
	.byte	$04
	.byte	$04
	.byte	$07
	.byte	$DC
	.byte	$01
	.byte	$01
	.byte	$8D
	.byte	$01
	.byte	$01
	.byte	$01
	.byte	$01
	.byte	$8F
	.byte	$06
	.byte	$05
	.byte	$D4
	.byte	$18
	.byte	$19
	.byte	$19
	.byte	$18
	.byte	$18
	.byte	$05
	.byte	$10
	.byte	$13
	.byte	$04
	.byte	$13
	.byte	$2F
	.byte	$05
	.byte	$E0
	.byte	$F1
	.byte	$08
	.byte	$05
	.byte	$13
	.byte	$05
	.byte	$13
	.byte	$1B
	.byte	$DD
	.byte	$DC
	.byte	$8D
	.byte	$01
	.byte	$01
	.byte	$01
	.byte	$01
	.byte	$01
	.byte	$01
	.byte	$8F
	.byte	$16
	.byte	$E4
	.byte	$10
	.byte	$10
	.byte	$10
	.byte	$10
	.byte	$04
	.byte	$13
	.byte	$04
	.byte	$04
	.byte	$05
	.byte	$12
	.byte	$05
	.byte	$07
	.byte	$00
	.byte	$E0
	.byte	$10
	.byte	$2F
	.byte	$05
	.byte	$13
	.byte	$04
	.byte	$1A
	.byte	$DD
	.byte	$DE
	.byte	$DF
	.byte	$DF
	.byte	$DF
	.byte	$DF
	.byte	$DF
	.byte	$DF
	.byte	$DF
	.byte	$DF
	.byte	$00
	.byte	$1D
	.byte	$05
	.byte	$05
	.byte	$D4
	.byte	$05
	.byte	$13
	.byte	$05
	.byte	$13
	.byte	$05
	.byte	$2F
	.byte	$05
	.byte	$0D
	.byte	$00
	.byte	$F1
	.byte	$00
	.byte	$05
	.byte	$10
	.byte	$05
	.byte	$05
	.byte	$13
	.byte	$1A
	.byte	$DD
	.byte	$DE
	.byte	$DF
	.byte	$FC
	.byte	$DF
	.byte	$FC
	.byte	$DF
	.byte	$FC
	.byte	$FC
	.byte	$DF
	.byte	$00
	.byte	$16
	.byte	$13
	.byte	$D4
	.byte	$E4
	.byte	$D4
	.byte	$05
	.byte	$13
	.byte	$13
	.byte	$04
	.byte	$05
	.byte	$05
	.byte	$1C
	.byte	$00
	.byte	$00
	.byte	$E0
	.byte	$13
	.byte	$D6
	.byte	$D7
	.byte	$C8
	.byte	$C9
	.byte	$1B
	.byte	$DD
	.byte	$DE
	.byte	$DF
	.byte	$DF
	.byte	$DF
	.byte	$DF
	.byte	$DF
	.byte	$EC
	.byte	$EC
	.byte	$DF
	.byte	$00
	.byte	$16
	.byte	$D4
	.byte	$E4
	.byte	$D4
	.byte	$E4
	.byte	$D4
	.byte	$D4
	.byte	$13
	.byte	$05
	.byte	$04
	.byte	$D6
	.byte	$D7
	.byte	$1B
	.byte	$F1
	.byte	$F2
	.byte	$05
	.byte	$E6
	.byte	$E7
	.byte	$D8
	.byte	$D9
	.byte	$1B
	.byte	$ED
	.byte	$DE
	.byte	$DF
	.byte	$FC
	.byte	$DF
	.byte	$FC
	.byte	$DF
	.byte	$CF
	.byte	$CF
	.byte	$DF
	.byte	$00
	.byte	$16
	.byte	$E4
	.byte	$13
	.byte	$E4
	.byte	$04
	.byte	$E4
	.byte	$E4
	.byte	$04
	.byte	$13
	.byte	$13
	.byte	$E6
	.byte	$E7
	.byte	$1B
	.byte	$00
	.byte	$00
	.byte	$06
	.byte	$10
	.byte	$10
	.byte	$E8
	.byte	$E9
	.byte	$1A
	.byte	$00
	.byte	$EE
	.byte	$DF
	.byte	$DF
	.byte	$DF
	.byte	$DF
	.byte	$DF
	.byte	$CF
	.byte	$CF
	.byte	$DF
	.byte	$00
	.byte	$17
	.byte	$05
	.byte	$05
	.byte	$05
	.byte	$13
	.byte	$05
	.byte	$05
	.byte	$05
	.byte	$05
	.byte	$05
	.byte	$05
	.byte	$05
	.byte	$09
	.byte	$00
	.byte	$F1
	.byte	$00
	.byte	$F2
	.byte	$06
	.byte	$F8
	.byte	$F9
	.byte	$05
	.byte	$1C
	.byte	$18
	.byte	$12
	.byte	$11
	.byte	$11
	.byte	$07
	.byte	$00
	.byte	$00
	.byte	$00
	.byte	$00
	.byte	$0A
	.byte	$17
	.byte	$07
	.byte	$14
	.byte	$15
	.byte	$15
	.byte	$14
	.byte	$05
	.byte	$05
	.byte	$11
	.byte	$C8
	.byte	$C9
	.byte	$12
	.byte	$2F
	.byte	$F0
	.byte	$00
	.byte	$F1
	.byte	$00
	.byte	$00
	.byte	$15
	.byte	$14
	.byte	$14
	.byte	$15
	.byte	$14
	.byte	$15
	.byte	$14
	.byte	$15
	.byte	$00
	.byte	$00
	.byte	$F2
	.byte	$00
	.byte	$F1
	.byte	$00
	.byte	$16
	.byte	$8E
	.byte	$9C
	.byte	$01
	.byte	$8F
	.byte	$00
	.byte	$06
	.byte	$05
	.byte	$05
	.byte	$D8
	.byte	$D9
	.byte	$D6
	.byte	$D7
	.byte	$1C
	.byte	$00
	.byte	$F0
	.byte	$00
	.byte	$F2
	.byte	$00
	.byte	$E0
	.byte	$E0
	.byte	$E0
	.byte	$F2
	.byte	$E0
	.byte	$F0
	.byte	$E0
	.byte	$F1
	.byte	$00
	.byte	$00
	.byte	$E0
	.byte	$00
	.byte	$17
	.byte	$05
	.byte	$01
	.byte	$01
	.byte	$9C
	.byte	$01
	.byte	$8F
	.byte	$00
	.byte	$06
	.byte	$05
	.byte	$E8
	.byte	$E9
	.byte	$E6
	.byte	$E7
	.byte	$05
	.byte	$1B
	.byte	$F0
	.byte	$E0
	.byte	$00
	.byte	$E0
	.byte	$F2
	.byte	$00
	.byte	$18
	.byte	$18
	.byte	$19
	.byte	$18
	.byte	$19
	.byte	$19
	.byte	$18
	.byte	$18
	.byte	$19
	.byte	$00
	.byte	$08
	.byte	$05
	.byte	$01
	.byte	$01
	.byte	$01
	.byte	$9C
	.byte	$01
	.byte	$8F
	.byte	$00
	.byte	$06
	.byte	$F8
	.byte	$F9
	.byte	$05
	.byte	$05
	.byte	$12
	.byte	$09
	.byte	$00
	.byte	$00
	.byte	$00
	.byte	$00
	.byte	$00
	.byte	$08
	.byte	$12
	.byte	$11
	.byte	$11
	.byte	$11
	.byte	$11
	.byte	$12
	.byte	$12
	.byte	$11
	.byte	$11
	.byte	$12
	.byte	$05
	.byte	$05
	.byte	$01
	.byte	$01
	.byte	$01
	.byte	$01
	.byte	$9C
	.byte	$01
	.byte	$8F
	.byte	$00
	.byte	$06
	.byte	$05
	.byte	$05
	.byte	$11
	.byte	$D6
	.byte	$D7
	.byte	$09
	.byte	$00
	.byte	$F2
	.byte	$00
	.byte	$00
	.byte	$06
	.byte	$05
	.byte	$D6
	.byte	$D7
	.byte	$05
	.byte	$13
	.byte	$13
	.byte	$05
	.byte	$05
	.byte	$C8
	.byte	$C9
	.byte	$05
	.byte	$05
	.byte	$EF
	.byte	$01
	.byte	$01
	.byte	$01
	.byte	$01
	.byte	$9E
	.byte	$9F
	.byte	$AF
	.byte	$00
	.byte	$00
	.byte	$06
	.byte	$05
	.byte	$E6
	.byte	$E7
	.byte	$05
	.byte	$09
	.byte	$00
	.byte	$00
	.byte	$F2
	.byte	$00
	.byte	$05
	.byte	$E6
	.byte	$E7
	.byte	$05
	.byte	$05
	.byte	$05
	.byte	$04
	.byte	$10
	.byte	$D8
	.byte	$D9
	.byte	$04
	.byte	$10
	.byte	$FF
	.byte	$EF
	.byte	$01
	.byte	$01
	.byte	$8D
	.byte	$01
	.byte	$01
	.byte	$01
	.byte	$8F
	.byte	$00
	.byte	$00
	.byte	$16
	.byte	$05
	.byte	$13
	.byte	$12
	.byte	$05
	.byte	$1B
	.byte	$00
	.byte	$00
	.byte	$00
	.byte	$06
	.byte	$05
	.byte	$05
	.byte	$12
	.byte	$D6
	.byte	$D7
	.byte	$05
	.byte	$05
	.byte	$E8
	.byte	$E9
	.byte	$C8
	.byte	$C9
	.byte	$9D
	.byte	$FF
	.byte	$EF
	.byte	$8D
	.byte	$01
	.byte	$01
	.byte	$01
	.byte	$01
	.byte	$01
	.byte	$8F
	.byte	$00
	.byte	$16
	.byte	$12
	.byte	$13
	.byte	$0E
	.byte	$0F
	.byte	$1A
	.byte	$00
	.byte	$F2
	.byte	$00
	.byte	$00
	.byte	$00
	.byte	$06
	.byte	$05
	.byte	$E6
	.byte	$E7
	.byte	$05
	.byte	$05
	.byte	$F8
	.byte	$F9
	.byte	$D8
	.byte	$D9
	.byte	$FE
	.byte	$9D
	.byte	$BF
	.byte	$BE
	.byte	$BE
	.byte	$BE
	.byte	$BE
	.byte	$BE
	.byte	$BE
	.byte	$BE
	.byte	$00
	.byte	$00
	.byte	$06
	.byte	$05
	.byte	$1E
	.byte	$1F
	.byte	$1A
	.byte	$00
	.byte	$00
	.byte	$E0
	.byte	$F2
	.byte	$00
	.byte	$00
	.byte	$12
	.byte	$05
	.byte	$05
	.byte	$05
	.byte	$04
	.byte	$C8
	.byte	$C9
	.byte	$E8
	.byte	$E9
	.byte	$BF
	.byte	$FE
	.byte	$BF
	.byte	$BE
	.byte	$CF
	.byte	$FC
	.byte	$FC
	.byte	$FC
	.byte	$CF
	.byte	$BE
	.byte	$00
	.byte	$F0
	.byte	$E0
	.byte	$06
	.byte	$14
	.byte	$14
	.byte	$00
	.byte	$00
	.byte	$00
	.byte	$E0
	.byte	$00
	.byte	$F2
	.byte	$00
	.byte	$06
	.byte	$05
	.byte	$0E
	.byte	$0F
	.byte	$05
	.byte	$D8
	.byte	$D9
	.byte	$F8
	.byte	$F9
	.byte	$FF
	.byte	$BF
	.byte	$BF
	.byte	$BE
	.byte	$CF
	.byte	$FC
	.byte	$FC
	.byte	$FC
	.byte	$CF
	.byte	$BE
	.byte	$00
	.byte	$E0
	.byte	$F1
	.byte	$00
	.byte	$00
	.byte	$00
	.byte	$00
	.byte	$00
	.byte	$F1
	.byte	$00
	.byte	$F2
	.byte	$00
	.byte	$00
	.byte	$00
	.byte	$05
	.byte	$1E
	.byte	$1F
	.byte	$05
	.byte	$E8
	.byte	$E9
	.byte	$05
	.byte	$05
	.byte	$00
	.byte	$FF
	.byte	$BF
	.byte	$BE
	.byte	$BE
	.byte	$BE
	.byte	$BE
	.byte	$BE
	.byte	$BE
	.byte	$BE
	.byte	$00
	.byte	$00
	.byte	$00
	.byte	$00
	.byte	$00
	.byte	$00
	.byte	$00
	.byte	$00
	.byte	$F2
	.byte	$00
	.byte	$F1
	.byte	$F1
	.byte	$00
	.byte	$00
	.byte	$06
	.byte	$05
	.byte	$12
	.byte	$05
	.byte	$F8
	.byte	$F9
	.byte	$C8
	.byte	$C9
	.byte	$00
	.byte	$00
	.byte	$FF
	.byte	$BE
	.byte	$BE
	.byte	$BE
	.byte	$BE
	.byte	$BE
	.byte	$BE
	.byte	$BE
	.byte	$00
	.byte	$00
	.byte	$18
	.byte	$19
	.byte	$19
	.byte	$19
	.byte	$0A
	.byte	$00
	.byte	$00
	.byte	$00
	.byte	$00
	.byte	$F1
	.byte	$F1
	.byte	$00
	.byte	$17
	.byte	$05
	.byte	$0E
	.byte	$0F
	.byte	$05
	.byte	$12
	.byte	$D8
	.byte	$D9
	.byte	$18
	.byte	$19
	.byte	$00
	.byte	$19
	.byte	$19
	.byte	$19
	.byte	$19
	.byte	$19
	.byte	$19
	.byte	$00
	.byte	$08
	.byte	$18
	.byte	$04
	.byte	$12
	.byte	$0E
	.byte	$0F
	.byte	$1C
	.byte	$00
	.byte	$00
	.byte	$F1
	.byte	$00
	.byte	$E0
	.byte	$F1
	.byte	$00
	.byte	$00
	.byte	$05
	.byte	$1E
	.byte	$1F
	.byte	$05
	.byte	$04
	.byte	$E8
	.byte	$E9
	.byte	$04
	.byte	$05
	.byte	$05
	.byte	$05
	.byte	$05
	.byte	$13
	.byte	$04
	.byte	$04
	.byte	$04
	.byte	$04
	.byte	$04
	.byte	$04
	.byte	$04
	.byte	$04
	.byte	$1E
	.byte	$1F
	.byte	$07
	.byte	$00
	.byte	$E0
	.byte	$00
	.byte	$F2
	.byte	$00
	.byte	$00
	.byte	$00
	.byte	$17
	.byte	$05
	.byte	$11
	.byte	$05
	.byte	$05
	.byte	$05
	.byte	$F8
	.byte	$F9
	.byte	$12
	.byte	$04
	.byte	$05
	.byte	$13
	.byte	$05
	.byte	$12
	.byte	$05
	.byte	$05
	.byte	$13
	.byte	$12
	.byte	$05
	.byte	$12
	.byte	$0E
	.byte	$0F
	.byte	$11
	.byte	$05
	.byte	$00
	.byte	$00
	.byte	$00
	.byte	$00
	.byte	$F1
	.byte	$00
	.byte	$F2
	.byte	$00
	.byte	$08
	.byte	$0E
	.byte	$0F
	.byte	$04
	.byte	$05
	.byte	$12
	.byte	$04
	.byte	$05
	.byte	$04
	.byte	$12
	.byte	$04
	.byte	$05
	.byte	$05
	.byte	$12
	.byte	$05
	.byte	$05
	.byte	$05
	.byte	$12
	.byte	$05
	.byte	$04
	.byte	$1E
	.byte	$1F
	.byte	$04
	.byte	$07
	.byte	$00
	.byte	$F2
	.byte	$F2
	.byte	$00
	.byte	$E0
	.byte	$00
	.byte	$E0
	.byte	$F2
	.byte	$05
	.byte	$1E
	.byte	$1F
	.byte	$05
	.byte	$05
	.byte	$05
	.byte	$04
	.byte	$05
	.byte	$00
	.byte	$FF
	.byte	$FF
	.byte	$3F
	.byte	$FF
	.byte	$FF
	.byte	$FF
	.byte	$FF
	.byte	$FF
	.byte	$FF
	.byte	$FF
	.byte	$CF
	.byte	$FF
	.byte	$55
	.byte	$5F
	.byte	$DF
	.byte	$FF
	.byte	$FF
	.byte	$FF
	.byte	$CC
	.byte	$FF
	.byte	$55
	.byte	$55
	.byte	$DD
	.byte	$FF
	.byte	$FF
	.byte	$FF
	.byte	$30
	.byte	$0F
	.byte	$FF
	.byte	$F3
	.byte	$FF
	.byte	$AB
	.byte	$FF
	.byte	$FF
	.byte	$FF
	.byte	$3C
	.byte	$FF
	.byte	$FF
	.byte	$FF
	.byte	$AA
	.byte	$AA
	.byte	$EE
	.byte	$FF
	.byte	$33
	.byte	$CC
	.byte	$FF
	.byte	$FF
	.byte	$FA
	.byte	$FA
	.byte	$FE
	.byte	$FF
	.byte	$33
	.byte	$00
	.byte	$FF
	.byte	$FF
	.byte	$0F
	.byte	$0F
	.byte	$0F
	.byte	$0F
	.byte	$00
	.byte	$00
	.byte	$0F
	.byte	$0F
_intro_cutscene_3:
	.byte	$12
	.byte	$05
	.byte	$04
	.byte	$04
	.byte	$11
	.byte	$04
	.byte	$05
	.byte	$04
	.byte	$04
	.byte	$11
	.byte	$05
	.byte	$04
	.byte	$04
	.byte	$04
	.byte	$07
	.byte	$00
	.byte	$E0
	.byte	$F2
	.byte	$E0
	.byte	$E0
	.byte	$F1
	.byte	$E0
	.byte	$00
	.byte	$08
	.byte	$04
	.byte	$04
	.byte	$11
	.byte	$04
	.byte	$04
	.byte	$04
	.byte	$11
	.byte	$04
	.byte	$04
	.byte	$04
	.byte	$04
	.byte	$05
	.byte	$04
	.byte	$04
	.byte	$04
	.byte	$04
	.byte	$04
	.byte	$04
	.byte	$04
	.byte	$04
	.byte	$04
	.byte	$07
	.byte	$00
	.byte	$00
	.byte	$E0
	.byte	$F1
	.byte	$F2
	.byte	$F1
	.byte	$E0
	.byte	$E0
	.byte	$08
	.byte	$04
	.byte	$05
	.byte	$04
	.byte	$04
	.byte	$04
	.byte	$05
	.byte	$04
	.byte	$04
	.byte	$04
	.byte	$04
	.byte	$11
	.byte	$0E
	.byte	$0F
	.byte	$04
	.byte	$0E
	.byte	$0F
	.byte	$04
	.byte	$0E
	.byte	$0F
	.byte	$04
	.byte	$12
	.byte	$07
	.byte	$00
	.byte	$F2
	.byte	$00
	.byte	$F1
	.byte	$E0
	.byte	$E0
	.byte	$E0
	.byte	$00
	.byte	$17
	.byte	$11
	.byte	$05
	.byte	$0E
	.byte	$0F
	.byte	$05
	.byte	$0E
	.byte	$0F
	.byte	$04
	.byte	$0E
	.byte	$0F
	.byte	$05
	.byte	$05
	.byte	$1E
	.byte	$1F
	.byte	$04
	.byte	$1E
	.byte	$1F
	.byte	$11
	.byte	$1E
	.byte	$1F
	.byte	$04
	.byte	$07
	.byte	$00
	.byte	$00
	.byte	$E0
	.byte	$00
	.byte	$00
	.byte	$00
	.byte	$E0
	.byte	$F1
	.byte	$00
	.byte	$16
	.byte	$05
	.byte	$04
	.byte	$1E
	.byte	$1F
	.byte	$04
	.byte	$1E
	.byte	$1F
	.byte	$04
	.byte	$1E
	.byte	$1F
	.byte	$07
	.byte	$15
	.byte	$14
	.byte	$15
	.byte	$15
	.byte	$15
	.byte	$15
	.byte	$15
	.byte	$15
	.byte	$15
	.byte	$00
	.byte	$00
	.byte	$E0
	.byte	$00
	.byte	$00
	.byte	$00
	.byte	$00
	.byte	$00
	.byte	$00
	.byte	$00
	.byte	$00
	.byte	$00
	.byte	$15
	.byte	$14
	.byte	$14
	.byte	$15
	.byte	$14
	.byte	$0D
	.byte	$15
	.byte	$15
	.byte	$15
	.byte	$15
	.byte	$00
	.byte	$00
	.byte	$00
	.byte	$00
	.byte	$00
	.byte	$00
	.byte	$00
	.byte	$00
	.byte	$00
	.byte	$00
	.byte	$00
	.byte	$00
	.byte	$00
	.byte	$00
	.byte	$00
	.byte	$00
	.byte	$00
	.byte	$00
	.byte	$00
	.byte	$00
	.byte	$00
	.byte	$00
	.byte	$00
	.byte	$00
	.byte	$00
	.byte	$00
	.byte	$00
	.byte	$00
	.byte	$00
	.byte	$00
	.byte	$00
	.byte	$00
	.byte	$E0
	.byte	$00
	.byte	$00
	.byte	$00
	.byte	$00
	.byte	$00
	.byte	$00
	.byte	$00
	.byte	$00
	.byte	$00
	.byte	$00
	.byte	$00
	.byte	$00
	.byte	$00
	.byte	$00
	.byte	$00
	.byte	$00
	.byte	$00
	.byte	$00
	.byte	$00
	.byte	$00
	.byte	$00
	.byte	$00
	.byte	$00
	.byte	$00
	.byte	$00
	.byte	$00
	.byte	$00
	.byte	$00
	.byte	$00
	.byte	$00
	.byte	$E0
	.byte	$00
	.byte	$00
	.byte	$00
	.byte	$0B
	.byte	$00
	.byte	$00
	.byte	$00
	.byte	$0B
	.byte	$00
	.byte	$00
	.byte	$00
	.byte	$0B
	.byte	$00
	.byte	$00
	.byte	$00
	.byte	$0B
	.byte	$00
	.byte	$00
	.byte	$00
	.byte	$0B
	.byte	$00
	.byte	$83
	.byte	$84
	.byte	$85
	.byte	$86
	.byte	$87
	.byte	$00
	.byte	$0B
	.byte	$00
	.byte	$00
	.byte	$00
	.byte	$0B
	.byte	$00
	.byte	$00
	.byte	$00
	.byte	$00
	.byte	$00
	.byte	$00
	.byte	$00
	.byte	$00
	.byte	$00
	.byte	$00
	.byte	$00
	.byte	$00
	.byte	$00
	.byte	$00
	.byte	$00
	.byte	$00
	.byte	$00
	.byte	$00
	.byte	$00
	.byte	$00
	.byte	$92
	.byte	$93
	.byte	$94
	.byte	$95
	.byte	$96
	.byte	$97
	.byte	$98
	.byte	$00
	.byte	$00
	.byte	$00
	.byte	$00
	.byte	$00
	.byte	$00
	.byte	$00
	.byte	$00
	.byte	$00
	.byte	$00
	.byte	$00
	.byte	$00
	.byte	$00
	.byte	$00
	.byte	$00
	.byte	$00
	.byte	$00
	.byte	$00
	.byte	$00
	.byte	$00
	.byte	$00
	.byte	$00
	.byte	$00
	.byte	$00
	.byte	$00
	.byte	$A2
	.byte	$A3
	.byte	$A4
	.byte	$A5
	.byte	$A6
	.byte	$A7
	.byte	$A8
	.byte	$00
	.byte	$00
	.byte	$00
	.byte	$00
	.byte	$00
	.byte	$00
	.byte	$00
	.byte	$00
	.byte	$00
	.byte	$00
	.byte	$00
	.byte	$00
	.byte	$00
	.byte	$00
	.byte	$00
	.byte	$00
	.byte	$00
	.byte	$00
	.byte	$00
	.byte	$00
	.byte	$00
	.byte	$00
	.byte	$00
	.byte	$00
	.byte	$00
	.byte	$B2
	.byte	$B3
	.byte	$B4
	.byte	$B5
	.byte	$B6
	.byte	$B7
	.byte	$B8
	.byte	$00
	.byte	$00
	.byte	$00
	.byte	$00
	.byte	$00
	.byte	$00
	.byte	$00
	.byte	$08
	.byte	$09
	.byte	$18
	.byte	$18
	.byte	$19
	.byte	$18
	.byte	$19
	.byte	$19
	.byte	$18
	.byte	$18
	.byte	$19
	.byte	$18
	.byte	$18
	.byte	$18
	.byte	$09
	.byte	$00
	.byte	$00
	.byte	$00
	.byte	$00
	.byte	$C3
	.byte	$C4
	.byte	$C5
	.byte	$C6
	.byte	$C7
	.byte	$00
	.byte	$08
	.byte	$18
	.byte	$19
	.byte	$08
	.byte	$18
	.byte	$00
	.byte	$00
	.byte	$1D
	.byte	$04
	.byte	$11
	.byte	$04
	.byte	$05
	.byte	$05
	.byte	$04
	.byte	$04
	.byte	$05
	.byte	$04
	.byte	$05
	.byte	$05
	.byte	$05
	.byte	$11
	.byte	$04
	.byte	$1C
	.byte	$0A
	.byte	$00
	.byte	$00
	.byte	$00
	.byte	$00
	.byte	$D5
	.byte	$00
	.byte	$00
	.byte	$00
	.byte	$1D
	.byte	$04
	.byte	$04
	.byte	$11
	.byte	$05
	.byte	$00
	.byte	$E3
	.byte	$00
	.byte	$1D
	.byte	$05
	.byte	$04
	.byte	$05
	.byte	$11
	.byte	$04
	.byte	$05
	.byte	$04
	.byte	$11
	.byte	$05
	.byte	$04
	.byte	$12
	.byte	$05
	.byte	$04
	.byte	$11
	.byte	$1C
	.byte	$00
	.byte	$00
	.byte	$00
	.byte	$00
	.byte	$D5
	.byte	$00
	.byte	$F1
	.byte	$00
	.byte	$00
	.byte	$1D
	.byte	$05
	.byte	$05
	.byte	$04
	.byte	$00
	.byte	$00
	.byte	$F1
	.byte	$00
	.byte	$15
	.byte	$14
	.byte	$14
	.byte	$15
	.byte	$14
	.byte	$14
	.byte	$15
	.byte	$14
	.byte	$15
	.byte	$14
	.byte	$15
	.byte	$15
	.byte	$15
	.byte	$14
	.byte	$0D
	.byte	$00
	.byte	$00
	.byte	$00
	.byte	$00
	.byte	$D5
	.byte	$00
	.byte	$00
	.byte	$00
	.byte	$00
	.byte	$00
	.byte	$00
	.byte	$00
	.byte	$00
	.byte	$00
	.byte	$00
	.byte	$00
	.byte	$00
	.byte	$00
	.byte	$00
	.byte	$00
	.byte	$00
	.byte	$00
	.byte	$00
	.byte	$00
	.byte	$00
	.byte	$00
	.byte	$00
	.byte	$00
	.byte	$00
	.byte	$00
	.byte	$00
	.byte	$00
	.byte	$00
	.byte	$00
	.byte	$00
	.byte	$00
	.byte	$D5
	.byte	$00
	.byte	$A9
	.byte	$9C
	.byte	$01
	.byte	$01
	.byte	$01
	.byte	$01
	.byte	$01
	.byte	$00
	.byte	$00
	.byte	$00
	.byte	$00
	.byte	$00
	.byte	$00
	.byte	$00
	.byte	$00
	.byte	$80
	.byte	$81
	.byte	$00
	.byte	$00
	.byte	$00
	.byte	$00
	.byte	$80
	.byte	$81
	.byte	$00
	.byte	$00
	.byte	$00
	.byte	$E0
	.byte	$00
	.byte	$00
	.byte	$00
	.byte	$D5
	.byte	$00
	.byte	$A9
	.byte	$01
	.byte	$9C
	.byte	$01
	.byte	$01
	.byte	$01
	.byte	$01
	.byte	$00
	.byte	$00
	.byte	$00
	.byte	$00
	.byte	$00
	.byte	$D2
	.byte	$D0
	.byte	$D0
	.byte	$90
	.byte	$91
	.byte	$D0
	.byte	$D0
	.byte	$D0
	.byte	$D0
	.byte	$90
	.byte	$91
	.byte	$D0
	.byte	$E0
	.byte	$00
	.byte	$00
	.byte	$00
	.byte	$00
	.byte	$00
	.byte	$D5
	.byte	$00
	.byte	$A9
	.byte	$01
	.byte	$01
	.byte	$9A
	.byte	$00
	.byte	$00
	.byte	$00
	.byte	$00
	.byte	$00
	.byte	$00
	.byte	$00
	.byte	$00
	.byte	$E1
	.byte	$01
	.byte	$01
	.byte	$A0
	.byte	$A1
	.byte	$01
	.byte	$01
	.byte	$01
	.byte	$01
	.byte	$A0
	.byte	$A1
	.byte	$01
	.byte	$E2
	.byte	$E0
	.byte	$00
	.byte	$00
	.byte	$00
	.byte	$00
	.byte	$D5
	.byte	$00
	.byte	$A9
	.byte	$AD
	.byte	$01
	.byte	$01
	.byte	$9A
	.byte	$00
	.byte	$00
	.byte	$00
	.byte	$00
	.byte	$00
	.byte	$00
	.byte	$00
	.byte	$F0
	.byte	$E1
	.byte	$01
	.byte	$B0
	.byte	$B1
	.byte	$01
	.byte	$01
	.byte	$01
	.byte	$01
	.byte	$B0
	.byte	$B1
	.byte	$01
	.byte	$01
	.byte	$E2
	.byte	$00
	.byte	$00
	.byte	$00
	.byte	$00
	.byte	$E5
	.byte	$00
	.byte	$A9
	.byte	$BD
	.byte	$AD
	.byte	$01
	.byte	$8B
	.byte	$01
	.byte	$01
	.byte	$E0
	.byte	$00
	.byte	$00
	.byte	$00
	.byte	$00
	.byte	$E0
	.byte	$F0
	.byte	$C2
	.byte	$C0
	.byte	$C0
	.byte	$C0
	.byte	$C0
	.byte	$C0
	.byte	$C0
	.byte	$C0
	.byte	$C0
	.byte	$C0
	.byte	$C0
	.byte	$C1
	.byte	$00
	.byte	$00
	.byte	$00
	.byte	$00
	.byte	$0A
	.byte	$00
	.byte	$A9
	.byte	$BD
	.byte	$BD
	.byte	$AD
	.byte	$8B
	.byte	$01
	.byte	$01
	.byte	$00
	.byte	$00
	.byte	$00
	.byte	$00
	.byte	$00
	.byte	$00
	.byte	$00
	.byte	$00
	.byte	$00
	.byte	$00
	.byte	$00
	.byte	$00
	.byte	$00
	.byte	$00
	.byte	$00
	.byte	$00
	.byte	$00
	.byte	$00
	.byte	$00
	.byte	$00
	.byte	$00
	.byte	$00
	.byte	$00
	.byte	$00
	.byte	$00
	.byte	$A9
	.byte	$BD
	.byte	$AA
	.byte	$BD
	.byte	$AE
	.byte	$01
	.byte	$01
	.byte	$00
	.byte	$00
	.byte	$00
	.byte	$00
	.byte	$00
	.byte	$00
	.byte	$00
	.byte	$00
	.byte	$00
	.byte	$00
	.byte	$00
	.byte	$00
	.byte	$00
	.byte	$00
	.byte	$00
	.byte	$00
	.byte	$00
	.byte	$00
	.byte	$00
	.byte	$00
	.byte	$00
	.byte	$00
	.byte	$00
	.byte	$00
	.byte	$00
	.byte	$A9
	.byte	$BD
	.byte	$BA
	.byte	$BB
	.byte	$BD
	.byte	$89
	.byte	$89
	.byte	$19
	.byte	$00
	.byte	$00
	.byte	$00
	.byte	$00
	.byte	$E0
	.byte	$00
	.byte	$00
	.byte	$00
	.byte	$00
	.byte	$00
	.byte	$00
	.byte	$00
	.byte	$00
	.byte	$F1
	.byte	$00
	.byte	$00
	.byte	$00
	.byte	$00
	.byte	$00
	.byte	$00
	.byte	$00
	.byte	$00
	.byte	$00
	.byte	$00
	.byte	$A9
	.byte	$BD
	.byte	$CA
	.byte	$CB
	.byte	$BD
	.byte	$89
	.byte	$89
	.byte	$04
	.byte	$1C
	.byte	$00
	.byte	$00
	.byte	$00
	.byte	$00
	.byte	$00
	.byte	$00
	.byte	$00
	.byte	$E0
	.byte	$00
	.byte	$00
	.byte	$00
	.byte	$00
	.byte	$00
	.byte	$00
	.byte	$00
	.byte	$00
	.byte	$00
	.byte	$00
	.byte	$00
	.byte	$00
	.byte	$00
	.byte	$00
	.byte	$00
	.byte	$0A
	.byte	$9D
	.byte	$DA
	.byte	$DB
	.byte	$BD
	.byte	$89
	.byte	$89
	.byte	$12
	.byte	$04
	.byte	$09
	.byte	$00
	.byte	$00
	.byte	$00
	.byte	$00
	.byte	$00
	.byte	$00
	.byte	$00
	.byte	$00
	.byte	$00
	.byte	$0A
	.byte	$00
	.byte	$00
	.byte	$00
	.byte	$00
	.byte	$00
	.byte	$00
	.byte	$00
	.byte	$00
	.byte	$00
	.byte	$E0
	.byte	$00
	.byte	$00
	.byte	$00
	.byte	$00
	.byte	$EA
	.byte	$EB
	.byte	$BD
	.byte	$89
	.byte	$89
	.byte	$04
	.byte	$11
	.byte	$05
	.byte	$09
	.byte	$19
	.byte	$00
	.byte	$00
	.byte	$00
	.byte	$00
	.byte	$00
	.byte	$00
	.byte	$00
	.byte	$00
	.byte	$00
	.byte	$00
	.byte	$00
	.byte	$00
	.byte	$00
	.byte	$00
	.byte	$00
	.byte	$00
	.byte	$00
	.byte	$00
	.byte	$00
	.byte	$00
	.byte	$00
	.byte	$00
	.byte	$00
	.byte	$FB
	.byte	$BD
	.byte	$89
	.byte	$89
	.byte	$04
	.byte	$04
	.byte	$05
	.byte	$05
	.byte	$04
	.byte	$09
	.byte	$00
	.byte	$0C
	.byte	$00
	.byte	$00
	.byte	$00
	.byte	$00
	.byte	$00
	.byte	$0C
	.byte	$00
	.byte	$00
	.byte	$00
	.byte	$E3
	.byte	$00
	.byte	$0C
	.byte	$00
	.byte	$00
	.byte	$00
	.byte	$00
	.byte	$00
	.byte	$0C
	.byte	$00
	.byte	$00
	.byte	$00
	.byte	$9D
	.byte	$89
	.byte	$89
	.byte	$04
	.byte	$12
	.byte	$04
	.byte	$05
	.byte	$04
	.byte	$05
	.byte	$1C
	.byte	$00
	.byte	$0C
	.byte	$00
	.byte	$00
	.byte	$00
	.byte	$00
	.byte	$00
	.byte	$0C
	.byte	$00
	.byte	$00
	.byte	$D3
	.byte	$00
	.byte	$00
	.byte	$0C
	.byte	$00
	.byte	$00
	.byte	$00
	.byte	$00
	.byte	$00
	.byte	$0C
	.byte	$00
	.byte	$00
	.byte	$08
	.byte	$11
	.byte	$11
	.byte	$04
	.byte	$05
	.byte	$05
	.byte	$05
	.byte	$04
	.byte	$12
	.byte	$04
	.byte	$07
	.byte	$00
	.byte	$0C
	.byte	$00
	.byte	$00
	.byte	$00
	.byte	$00
	.byte	$00
	.byte	$0C
	.byte	$00
	.byte	$00
	.byte	$00
	.byte	$00
	.byte	$00
	.byte	$0C
	.byte	$00
	.byte	$00
	.byte	$00
	.byte	$00
	.byte	$00
	.byte	$0C
	.byte	$17
	.byte	$11
	.byte	$11
	.byte	$11
	.byte	$FF
	.byte	$FF
	.byte	$FF
	.byte	$3F
	.byte	$00
	.byte	$FC
	.byte	$FF
	.byte	$FF
	.byte	$0F
	.byte	$0F
	.byte	$03
	.byte	$00
	.byte	$00
	.byte	$5C
	.byte	$1F
	.byte	$0F
	.byte	$C0
	.byte	$F0
	.byte	$F0
	.byte	$F0
	.byte	$30
	.byte	$55
	.byte	$D5
	.byte	$F0
	.byte	$0C
	.byte	$FF
	.byte	$FF
	.byte	$FF
	.byte	$FF
	.byte	$44
	.byte	$5C
	.byte	$5F
	.byte	$00
	.byte	$00
	.byte	$22
	.byte	$88
	.byte	$00
	.byte	$54
	.byte	$55
	.byte	$55
	.byte	$30
	.byte	$00
	.byte	$00
	.byte	$00
	.byte	$00
	.byte	$0F
	.byte	$55
	.byte	$55
	.byte	$FF
	.byte	$30
	.byte	$00
	.byte	$03
	.byte	$00
	.byte	$00
	.byte	$07
	.byte	$55
	.byte	$0F
	.byte	$0F
	.byte	$00
	.byte	$00
	.byte	$00
	.byte	$00
	.byte	$00
	.byte	$0F
_intro_scroll_1:
	.byte	$00
	.byte	$00
	.byte	$00
	.byte	$00
	.byte	$00
	.byte	$00
	.byte	$00
	.byte	$00
	.byte	$00
	.byte	$00
	.byte	$00
	.byte	$00
	.byte	$00
	.byte	$00
	.byte	$00
	.byte	$00
	.byte	$00
	.byte	$00
	.byte	$00
	.byte	$00
	.byte	$00
	.byte	$00
	.byte	$00
	.byte	$00
	.byte	$00
	.byte	$00
	.byte	$00
	.byte	$00
	.byte	$00
	.byte	$00
	.byte	$00
	.byte	$00
	.byte	$00
	.byte	$00
	.byte	$00
	.byte	$00
	.byte	$00
	.byte	$00
	.byte	$00
	.byte	$00
	.byte	$00
	.byte	$00
	.byte	$00
	.byte	$00
	.byte	$00
	.byte	$00
	.byte	$00
	.byte	$00
	.byte	$00
	.byte	$00
	.byte	$00
	.byte	$00
	.byte	$00
	.byte	$00
	.byte	$00
	.byte	$00
	.byte	$00
	.byte	$00
	.byte	$00
	.byte	$00
	.byte	$00
	.byte	$00
	.byte	$00
	.byte	$00
	.byte	$00
	.byte	$00
	.byte	$00
	.byte	$00
	.byte	$00
	.byte	$00
	.byte	$00
	.byte	$00
	.byte	$00
	.byte	$00
	.byte	$00
	.byte	$00
	.byte	$00
	.byte	$00
	.byte	$00
	.byte	$00
	.byte	$00
	.byte	$00
	.byte	$00
	.byte	$00
	.byte	$00
	.byte	$00
	.byte	$00
	.byte	$00
	.byte	$00
	.byte	$00
	.byte	$00
	.byte	$00
	.byte	$00
	.byte	$00
	.byte	$00
	.byte	$00
	.byte	$00
	.byte	$00
	.byte	$00
	.byte	$00
	.byte	$00
	.byte	$00
	.byte	$00
	.byte	$00
	.byte	$00
	.byte	$00
	.byte	$00
	.byte	$00
	.byte	$00
	.byte	$00
	.byte	$00
	.byte	$00
	.byte	$00
	.byte	$00
	.byte	$00
	.byte	$00
	.byte	$00
	.byte	$00
	.byte	$00
	.byte	$00
	.byte	$00
	.byte	$00
	.byte	$00
	.byte	$00
	.byte	$00
	.byte	$00
	.byte	$00
	.byte	$00
	.byte	$00
	.byte	$9B
	.byte	$8C
	.byte	$00
	.byte	$00
	.byte	$00
	.byte	$5A
	.byte	$41
	.byte	$52
	.byte	$51
	.byte	$41
	.byte	$4B
	.byte	$27
	.byte	$53
	.byte	$00
	.byte	$43
	.byte	$48
	.byte	$52
	.byte	$4F
	.byte	$4E
	.byte	$49
	.byte	$43
	.byte	$4C
	.byte	$45
	.byte	$53
	.byte	$00
	.byte	$00
	.byte	$00
	.byte	$00
	.byte	$F3
	.byte	$3F
	.byte	$00
	.byte	$00
	.byte	$AB
	.byte	$00
	.byte	$00
	.byte	$00
	.byte	$00
	.byte	$00
	.byte	$00
	.byte	$00
	.byte	$00
	.byte	$00
	.byte	$00
	.byte	$00
	.byte	$00
	.byte	$00
	.byte	$00
	.byte	$00
	.byte	$00
	.byte	$00
	.byte	$00
	.byte	$00
	.byte	$00
	.byte	$00
	.byte	$00
	.byte	$00
	.byte	$00
	.byte	$00
	.byte	$00
	.byte	$00
	.byte	$60
	.byte	$40
	.byte	$00
	.byte	$00
	.byte	$CD
	.byte	$00
	.byte	$20
	.byte	$20
	.byte	$20
	.byte	$20
	.byte	$20
	.byte	$20
	.byte	$20
	.byte	$20
	.byte	$20
	.byte	$20
	.byte	$20
	.byte	$20
	.byte	$20
	.byte	$20
	.byte	$20
	.byte	$20
	.byte	$20
	.byte	$20
	.byte	$20
	.byte	$20
	.byte	$20
	.byte	$20
	.byte	$20
	.byte	$20
	.byte	$20
	.byte	$00
	.byte	$00
	.byte	$CD
	.byte	$00
	.byte	$00
	.byte	$CD
	.byte	$00
	.byte	$49
	.byte	$74
	.byte	$20
	.byte	$69
	.byte	$73
	.byte	$20
	.byte	$74
	.byte	$68
	.byte	$65
	.byte	$20
	.byte	$79
	.byte	$65
	.byte	$61
	.byte	$72
	.byte	$20
	.byte	$32
	.byte	$30
	.byte	$58
	.byte	$58
	.byte	$20
	.byte	$61
	.byte	$6E
	.byte	$64
	.byte	$20
	.byte	$20
	.byte	$00
	.byte	$00
	.byte	$CD
	.byte	$00
	.byte	$00
	.byte	$CD
	.byte	$00
	.byte	$20
	.byte	$20
	.byte	$20
	.byte	$20
	.byte	$20
	.byte	$20
	.byte	$20
	.byte	$20
	.byte	$20
	.byte	$20
	.byte	$20
	.byte	$20
	.byte	$20
	.byte	$20
	.byte	$20
	.byte	$20
	.byte	$20
	.byte	$20
	.byte	$20
	.byte	$20
	.byte	$20
	.byte	$20
	.byte	$20
	.byte	$20
	.byte	$20
	.byte	$00
	.byte	$00
	.byte	$CD
	.byte	$00
	.byte	$00
	.byte	$CD
	.byte	$00
	.byte	$61
	.byte	$20
	.byte	$75
	.byte	$6E
	.byte	$69
	.byte	$76
	.byte	$65
	.byte	$72
	.byte	$73
	.byte	$61
	.byte	$6C
	.byte	$20
	.byte	$63
	.byte	$6F
	.byte	$6E
	.byte	$66
	.byte	$6C
	.byte	$69
	.byte	$63
	.byte	$74
	.byte	$20
	.byte	$20
	.byte	$20
	.byte	$20
	.byte	$20
	.byte	$00
	.byte	$00
	.byte	$CD
	.byte	$00
	.byte	$00
	.byte	$CD
	.byte	$00
	.byte	$20
	.byte	$20
	.byte	$20
	.byte	$20
	.byte	$20
	.byte	$20
	.byte	$20
	.byte	$20
	.byte	$20
	.byte	$20
	.byte	$20
	.byte	$20
	.byte	$20
	.byte	$20
	.byte	$20
	.byte	$20
	.byte	$20
	.byte	$20
	.byte	$20
	.byte	$20
	.byte	$20
	.byte	$20
	.byte	$20
	.byte	$20
	.byte	$20
	.byte	$00
	.byte	$00
	.byte	$CD
	.byte	$00
	.byte	$00
	.byte	$CD
	.byte	$00
	.byte	$68
	.byte	$61
	.byte	$73
	.byte	$20
	.byte	$62
	.byte	$65
	.byte	$65
	.byte	$6E
	.byte	$20
	.byte	$72
	.byte	$61
	.byte	$67
	.byte	$69
	.byte	$6E
	.byte	$67
	.byte	$20
	.byte	$61
	.byte	$63
	.byte	$72
	.byte	$6F
	.byte	$73
	.byte	$73
	.byte	$20
	.byte	$20
	.byte	$20
	.byte	$00
	.byte	$00
	.byte	$CD
	.byte	$00
	.byte	$00
	.byte	$CD
	.byte	$00
	.byte	$20
	.byte	$20
	.byte	$20
	.byte	$20
	.byte	$20
	.byte	$20
	.byte	$20
	.byte	$20
	.byte	$20
	.byte	$20
	.byte	$20
	.byte	$20
	.byte	$20
	.byte	$20
	.byte	$20
	.byte	$20
	.byte	$20
	.byte	$20
	.byte	$20
	.byte	$20
	.byte	$20
	.byte	$20
	.byte	$20
	.byte	$20
	.byte	$20
	.byte	$00
	.byte	$00
	.byte	$CD
	.byte	$00
	.byte	$00
	.byte	$CD
	.byte	$00
	.byte	$61
	.byte	$6C
	.byte	$6C
	.byte	$20
	.byte	$74
	.byte	$68
	.byte	$65
	.byte	$20
	.byte	$6B
	.byte	$6E
	.byte	$6F
	.byte	$77
	.byte	$6E
	.byte	$20
	.byte	$67
	.byte	$61
	.byte	$6C
	.byte	$61
	.byte	$78
	.byte	$69
	.byte	$65
	.byte	$73
	.byte	$2E
	.byte	$20
	.byte	$20
	.byte	$00
	.byte	$00
	.byte	$CD
	.byte	$00
	.byte	$00
	.byte	$CD
	.byte	$00
	.byte	$20
	.byte	$20
	.byte	$20
	.byte	$20
	.byte	$20
	.byte	$20
	.byte	$20
	.byte	$20
	.byte	$20
	.byte	$20
	.byte	$20
	.byte	$20
	.byte	$20
	.byte	$20
	.byte	$20
	.byte	$20
	.byte	$20
	.byte	$20
	.byte	$20
	.byte	$20
	.byte	$20
	.byte	$20
	.byte	$20
	.byte	$20
	.byte	$20
	.byte	$00
	.byte	$00
	.byte	$CD
	.byte	$00
	.byte	$00
	.byte	$CD
	.byte	$00
	.byte	$20
	.byte	$20
	.byte	$20
	.byte	$20
	.byte	$20
	.byte	$20
	.byte	$20
	.byte	$20
	.byte	$20
	.byte	$20
	.byte	$20
	.byte	$20
	.byte	$20
	.byte	$20
	.byte	$20
	.byte	$20
	.byte	$20
	.byte	$20
	.byte	$20
	.byte	$20
	.byte	$20
	.byte	$20
	.byte	$20
	.byte	$20
	.byte	$20
	.byte	$00
	.byte	$00
	.byte	$CD
	.byte	$00
	.byte	$00
	.byte	$CD
	.byte	$00
	.byte	$20
	.byte	$20
	.byte	$20
	.byte	$20
	.byte	$20
	.byte	$20
	.byte	$20
	.byte	$20
	.byte	$20
	.byte	$20
	.byte	$20
	.byte	$20
	.byte	$20
	.byte	$20
	.byte	$20
	.byte	$20
	.byte	$20
	.byte	$20
	.byte	$20
	.byte	$20
	.byte	$20
	.byte	$20
	.byte	$20
	.byte	$20
	.byte	$20
	.byte	$00
	.byte	$00
	.byte	$CD
	.byte	$00
	.byte	$00
	.byte	$CD
	.byte	$00
	.byte	$54
	.byte	$68
	.byte	$65
	.byte	$20
	.byte	$65
	.byte	$76
	.byte	$69
	.byte	$6C
	.byte	$20
	.byte	$61
	.byte	$6C
	.byte	$69
	.byte	$65
	.byte	$6E
	.byte	$20
	.byte	$5A
	.byte	$41
	.byte	$52
	.byte	$51
	.byte	$41
	.byte	$4B
	.byte	$20
	.byte	$68
	.byte	$61
	.byte	$73
	.byte	$00
	.byte	$00
	.byte	$CD
	.byte	$00
	.byte	$00
	.byte	$CD
	.byte	$00
	.byte	$20
	.byte	$20
	.byte	$20
	.byte	$20
	.byte	$20
	.byte	$20
	.byte	$20
	.byte	$20
	.byte	$20
	.byte	$20
	.byte	$20
	.byte	$20
	.byte	$20
	.byte	$20
	.byte	$20
	.byte	$20
	.byte	$20
	.byte	$20
	.byte	$20
	.byte	$20
	.byte	$20
	.byte	$20
	.byte	$20
	.byte	$20
	.byte	$20
	.byte	$00
	.byte	$00
	.byte	$CD
	.byte	$00
	.byte	$00
	.byte	$CD
	.byte	$00
	.byte	$62
	.byte	$72
	.byte	$6F
	.byte	$6B
	.byte	$65
	.byte	$6E
	.byte	$20
	.byte	$77
	.byte	$69
	.byte	$74
	.byte	$68
	.byte	$20
	.byte	$74
	.byte	$68
	.byte	$65
	.byte	$20
	.byte	$67
	.byte	$61
	.byte	$6C
	.byte	$61
	.byte	$63
	.byte	$74
	.byte	$69
	.byte	$63
	.byte	$20
	.byte	$00
	.byte	$00
	.byte	$CD
	.byte	$00
	.byte	$00
	.byte	$CD
	.byte	$00
	.byte	$20
	.byte	$20
	.byte	$20
	.byte	$20
	.byte	$20
	.byte	$20
	.byte	$20
	.byte	$20
	.byte	$20
	.byte	$20
	.byte	$20
	.byte	$20
	.byte	$20
	.byte	$20
	.byte	$20
	.byte	$20
	.byte	$20
	.byte	$20
	.byte	$20
	.byte	$20
	.byte	$20
	.byte	$20
	.byte	$20
	.byte	$20
	.byte	$20
	.byte	$00
	.byte	$00
	.byte	$CD
	.byte	$00
	.byte	$00
	.byte	$CD
	.byte	$00
	.byte	$41
	.byte	$4C
	.byte	$4C
	.byte	$49
	.byte	$41
	.byte	$4E
	.byte	$43
	.byte	$45
	.byte	$2C
	.byte	$20
	.byte	$6F
	.byte	$76
	.byte	$65
	.byte	$72
	.byte	$74
	.byte	$68
	.byte	$72
	.byte	$6F
	.byte	$77
	.byte	$69
	.byte	$6E
	.byte	$67
	.byte	$20
	.byte	$61
	.byte	$20
	.byte	$00
	.byte	$00
	.byte	$CD
	.byte	$00
	.byte	$00
	.byte	$CD
	.byte	$00
	.byte	$20
	.byte	$20
	.byte	$20
	.byte	$20
	.byte	$20
	.byte	$20
	.byte	$20
	.byte	$20
	.byte	$20
	.byte	$20
	.byte	$20
	.byte	$20
	.byte	$20
	.byte	$20
	.byte	$20
	.byte	$20
	.byte	$20
	.byte	$20
	.byte	$20
	.byte	$20
	.byte	$20
	.byte	$20
	.byte	$20
	.byte	$20
	.byte	$20
	.byte	$00
	.byte	$00
	.byte	$CD
	.byte	$00
	.byte	$00
	.byte	$CD
	.byte	$00
	.byte	$74
	.byte	$68
	.byte	$6F
	.byte	$75
	.byte	$73
	.byte	$61
	.byte	$6E
	.byte	$64
	.byte	$20
	.byte	$79
	.byte	$65
	.byte	$61
	.byte	$72
	.byte	$73
	.byte	$20
	.byte	$6F
	.byte	$66
	.byte	$20
	.byte	$70
	.byte	$65
	.byte	$61
	.byte	$63
	.byte	$65
	.byte	$2E
	.byte	$20
	.byte	$00
	.byte	$00
	.byte	$CD
	.byte	$00
	.byte	$00
	.byte	$CD
	.byte	$00
	.byte	$20
	.byte	$20
	.byte	$20
	.byte	$20
	.byte	$20
	.byte	$20
	.byte	$20
	.byte	$20
	.byte	$20
	.byte	$20
	.byte	$20
	.byte	$20
	.byte	$20
	.byte	$20
	.byte	$20
	.byte	$20
	.byte	$20
	.byte	$20
	.byte	$20
	.byte	$20
	.byte	$20
	.byte	$20
	.byte	$20
	.byte	$20
	.byte	$20
	.byte	$00
	.byte	$00
	.byte	$CD
	.byte	$00
	.byte	$00
	.byte	$CD
	.byte	$00
	.byte	$20
	.byte	$20
	.byte	$20
	.byte	$20
	.byte	$20
	.byte	$20
	.byte	$20
	.byte	$20
	.byte	$20
	.byte	$20
	.byte	$20
	.byte	$20
	.byte	$20
	.byte	$20
	.byte	$20
	.byte	$20
	.byte	$20
	.byte	$20
	.byte	$20
	.byte	$20
	.byte	$20
	.byte	$20
	.byte	$20
	.byte	$20
	.byte	$20
	.byte	$00
	.byte	$00
	.byte	$CD
	.byte	$00
	.byte	$00
	.byte	$CD
	.byte	$00
	.byte	$20
	.byte	$20
	.byte	$20
	.byte	$20
	.byte	$20
	.byte	$20
	.byte	$20
	.byte	$20
	.byte	$20
	.byte	$20
	.byte	$20
	.byte	$20
	.byte	$20
	.byte	$20
	.byte	$20
	.byte	$20
	.byte	$20
	.byte	$20
	.byte	$20
	.byte	$20
	.byte	$20
	.byte	$20
	.byte	$20
	.byte	$20
	.byte	$20
	.byte	$00
	.byte	$00
	.byte	$CD
	.byte	$00
	.byte	$00
	.byte	$CD
	.byte	$00
	.byte	$5A
	.byte	$41
	.byte	$52
	.byte	$51
	.byte	$41
	.byte	$4B
	.byte	$20
	.byte	$68
	.byte	$61
	.byte	$73
	.byte	$20
	.byte	$75
	.byte	$6E
	.byte	$6C
	.byte	$6F
	.byte	$63
	.byte	$6B
	.byte	$65
	.byte	$64
	.byte	$20
	.byte	$74
	.byte	$68
	.byte	$65
	.byte	$20
	.byte	$20
	.byte	$00
	.byte	$00
	.byte	$CD
	.byte	$00
	.byte	$00
	.byte	$CD
	.byte	$00
	.byte	$20
	.byte	$20
	.byte	$20
	.byte	$20
	.byte	$20
	.byte	$20
	.byte	$20
	.byte	$20
	.byte	$20
	.byte	$20
	.byte	$20
	.byte	$20
	.byte	$20
	.byte	$20
	.byte	$20
	.byte	$20
	.byte	$20
	.byte	$20
	.byte	$20
	.byte	$20
	.byte	$20
	.byte	$20
	.byte	$20
	.byte	$20
	.byte	$20
	.byte	$00
	.byte	$00
	.byte	$CD
	.byte	$00
	.byte	$00
	.byte	$CD
	.byte	$00
	.byte	$74
	.byte	$65
	.byte	$63
	.byte	$68
	.byte	$6E
	.byte	$6F
	.byte	$6C
	.byte	$6F
	.byte	$67
	.byte	$79
	.byte	$20
	.byte	$6E
	.byte	$65
	.byte	$65
	.byte	$64
	.byte	$65
	.byte	$64
	.byte	$20
	.byte	$74
	.byte	$6F
	.byte	$20
	.byte	$70
	.byte	$75
	.byte	$74
	.byte	$20
	.byte	$00
	.byte	$00
	.byte	$CD
	.byte	$00
	.byte	$EA
	.byte	$FA
	.byte	$FA
	.byte	$FA
	.byte	$AA
	.byte	$AA
	.byte	$AA
	.byte	$AA
	.byte	$AA
	.byte	$AA
	.byte	$AA
	.byte	$AA
	.byte	$AA
	.byte	$AA
	.byte	$AA
	.byte	$AA
	.byte	$AA
	.byte	$AA
	.byte	$AA
	.byte	$AA
	.byte	$AA
	.byte	$AA
	.byte	$AA
	.byte	$AA
	.byte	$AA
	.byte	$AA
	.byte	$AA
	.byte	$0A
	.byte	$0A
	.byte	$8A
	.byte	$AA
	.byte	$AA
	.byte	$AA
	.byte	$AA
	.byte	$A0
	.byte	$A0
	.byte	$AA
	.byte	$AA
	.byte	$AA
	.byte	$AA
	.byte	$AA
	.byte	$AA
	.byte	$AA
	.byte	$AA
	.byte	$AA
	.byte	$AA
	.byte	$AA
	.byte	$AA
	.byte	$A2
	.byte	$A0
	.byte	$A0
	.byte	$AA
	.byte	$AA
	.byte	$AA
	.byte	$AA
	.byte	$AA
	.byte	$0A
	.byte	$0A
	.byte	$0A
	.byte	$0A
	.byte	$0A
	.byte	$0A
	.byte	$0A
	.byte	$09
_intro_scroll_2:
	.byte	$00
	.byte	$CD
	.byte	$00
	.byte	$20
	.byte	$20
	.byte	$20
	.byte	$20
	.byte	$20
	.byte	$20
	.byte	$20
	.byte	$20
	.byte	$20
	.byte	$20
	.byte	$20
	.byte	$20
	.byte	$20
	.byte	$20
	.byte	$20
	.byte	$20
	.byte	$20
	.byte	$20
	.byte	$20
	.byte	$20
	.byte	$20
	.byte	$20
	.byte	$20
	.byte	$20
	.byte	$20
	.byte	$00
	.byte	$00
	.byte	$CD
	.byte	$00
	.byte	$00
	.byte	$CD
	.byte	$00
	.byte	$73
	.byte	$70
	.byte	$61
	.byte	$63
	.byte	$65
	.byte	$20
	.byte	$74
	.byte	$72
	.byte	$61
	.byte	$76
	.byte	$65
	.byte	$6C
	.byte	$20
	.byte	$61
	.byte	$74
	.byte	$20
	.byte	$72
	.byte	$69
	.byte	$73
	.byte	$6B
	.byte	$2E
	.byte	$20
	.byte	$48
	.byte	$65
	.byte	$20
	.byte	$00
	.byte	$00
	.byte	$CD
	.byte	$00
	.byte	$00
	.byte	$CD
	.byte	$00
	.byte	$20
	.byte	$20
	.byte	$20
	.byte	$20
	.byte	$20
	.byte	$20
	.byte	$20
	.byte	$20
	.byte	$20
	.byte	$20
	.byte	$20
	.byte	$20
	.byte	$20
	.byte	$20
	.byte	$20
	.byte	$20
	.byte	$20
	.byte	$20
	.byte	$20
	.byte	$20
	.byte	$20
	.byte	$20
	.byte	$20
	.byte	$20
	.byte	$20
	.byte	$00
	.byte	$00
	.byte	$CD
	.byte	$00
	.byte	$00
	.byte	$CD
	.byte	$00
	.byte	$6E
	.byte	$6F
	.byte	$77
	.byte	$20
	.byte	$68
	.byte	$6F
	.byte	$6C
	.byte	$64
	.byte	$73
	.byte	$20
	.byte	$74
	.byte	$68
	.byte	$65
	.byte	$20
	.byte	$67
	.byte	$61
	.byte	$6C
	.byte	$61
	.byte	$63
	.byte	$74
	.byte	$69
	.byte	$63
	.byte	$20
	.byte	$20
	.byte	$20
	.byte	$00
	.byte	$00
	.byte	$CD
	.byte	$00
	.byte	$00
	.byte	$CD
	.byte	$00
	.byte	$20
	.byte	$20
	.byte	$20
	.byte	$20
	.byte	$20
	.byte	$20
	.byte	$20
	.byte	$20
	.byte	$20
	.byte	$20
	.byte	$20
	.byte	$20
	.byte	$20
	.byte	$20
	.byte	$20
	.byte	$20
	.byte	$20
	.byte	$20
	.byte	$20
	.byte	$20
	.byte	$20
	.byte	$20
	.byte	$20
	.byte	$20
	.byte	$20
	.byte	$00
	.byte	$00
	.byte	$CD
	.byte	$00
	.byte	$00
	.byte	$CD
	.byte	$00
	.byte	$63
	.byte	$69
	.byte	$76
	.byte	$69
	.byte	$6C
	.byte	$69
	.byte	$7A
	.byte	$61
	.byte	$74
	.byte	$69
	.byte	$6F
	.byte	$6E
	.byte	$20
	.byte	$68
	.byte	$6F
	.byte	$73
	.byte	$74
	.byte	$61
	.byte	$67
	.byte	$65
	.byte	$20
	.byte	$77
	.byte	$69
	.byte	$74
	.byte	$68
	.byte	$00
	.byte	$00
	.byte	$CD
	.byte	$00
	.byte	$00
	.byte	$CD
	.byte	$00
	.byte	$20
	.byte	$20
	.byte	$20
	.byte	$20
	.byte	$20
	.byte	$20
	.byte	$20
	.byte	$20
	.byte	$20
	.byte	$20
	.byte	$20
	.byte	$20
	.byte	$20
	.byte	$20
	.byte	$20
	.byte	$20
	.byte	$20
	.byte	$20
	.byte	$20
	.byte	$20
	.byte	$20
	.byte	$20
	.byte	$20
	.byte	$20
	.byte	$20
	.byte	$00
	.byte	$00
	.byte	$CD
	.byte	$00
	.byte	$00
	.byte	$CD
	.byte	$00
	.byte	$74
	.byte	$68
	.byte	$65
	.byte	$20
	.byte	$74
	.byte	$68
	.byte	$72
	.byte	$65
	.byte	$61
	.byte	$74
	.byte	$20
	.byte	$6F
	.byte	$66
	.byte	$20
	.byte	$75
	.byte	$73
	.byte	$69
	.byte	$6E
	.byte	$67
	.byte	$20
	.byte	$74
	.byte	$68
	.byte	$69
	.byte	$73
	.byte	$20
	.byte	$00
	.byte	$00
	.byte	$CD
	.byte	$00
	.byte	$00
	.byte	$CD
	.byte	$00
	.byte	$20
	.byte	$20
	.byte	$20
	.byte	$20
	.byte	$20
	.byte	$20
	.byte	$20
	.byte	$20
	.byte	$20
	.byte	$20
	.byte	$20
	.byte	$20
	.byte	$20
	.byte	$20
	.byte	$20
	.byte	$20
	.byte	$20
	.byte	$20
	.byte	$20
	.byte	$20
	.byte	$20
	.byte	$20
	.byte	$20
	.byte	$20
	.byte	$20
	.byte	$00
	.byte	$00
	.byte	$CD
	.byte	$00
	.byte	$00
	.byte	$CD
	.byte	$00
	.byte	$44
	.byte	$45
	.byte	$41
	.byte	$44
	.byte	$4C
	.byte	$59
	.byte	$20
	.byte	$41
	.byte	$54
	.byte	$54
	.byte	$41
	.byte	$43
	.byte	$4B
	.byte	$2E
	.byte	$20
	.byte	$20
	.byte	$20
	.byte	$20
	.byte	$20
	.byte	$20
	.byte	$20
	.byte	$20
	.byte	$20
	.byte	$20
	.byte	$20
	.byte	$00
	.byte	$00
	.byte	$CD
	.byte	$00
	.byte	$00
	.byte	$CD
	.byte	$00
	.byte	$20
	.byte	$20
	.byte	$20
	.byte	$20
	.byte	$20
	.byte	$20
	.byte	$20
	.byte	$20
	.byte	$20
	.byte	$20
	.byte	$20
	.byte	$20
	.byte	$20
	.byte	$20
	.byte	$20
	.byte	$20
	.byte	$20
	.byte	$20
	.byte	$20
	.byte	$20
	.byte	$20
	.byte	$20
	.byte	$20
	.byte	$20
	.byte	$20
	.byte	$00
	.byte	$00
	.byte	$CD
	.byte	$00
	.byte	$00
	.byte	$CD
	.byte	$00
	.byte	$20
	.byte	$20
	.byte	$20
	.byte	$20
	.byte	$20
	.byte	$20
	.byte	$20
	.byte	$20
	.byte	$20
	.byte	$20
	.byte	$20
	.byte	$20
	.byte	$20
	.byte	$20
	.byte	$20
	.byte	$20
	.byte	$20
	.byte	$20
	.byte	$20
	.byte	$20
	.byte	$20
	.byte	$20
	.byte	$20
	.byte	$20
	.byte	$20
	.byte	$00
	.byte	$00
	.byte	$CD
	.byte	$00
	.byte	$00
	.byte	$CD
	.byte	$00
	.byte	$20
	.byte	$20
	.byte	$20
	.byte	$20
	.byte	$20
	.byte	$20
	.byte	$20
	.byte	$20
	.byte	$20
	.byte	$20
	.byte	$20
	.byte	$20
	.byte	$20
	.byte	$20
	.byte	$20
	.byte	$20
	.byte	$20
	.byte	$20
	.byte	$20
	.byte	$20
	.byte	$20
	.byte	$20
	.byte	$20
	.byte	$20
	.byte	$20
	.byte	$00
	.byte	$00
	.byte	$CD
	.byte	$00
	.byte	$00
	.byte	$CD
	.byte	$00
	.byte	$43
	.byte	$69
	.byte	$76
	.byte	$69
	.byte	$6C
	.byte	$69
	.byte	$7A
	.byte	$61
	.byte	$74
	.byte	$69
	.byte	$6F
	.byte	$6E
	.byte	$73
	.byte	$20
	.byte	$20
	.byte	$20
	.byte	$20
	.byte	$61
	.byte	$72
	.byte	$65
	.byte	$20
	.byte	$20
	.byte	$20
	.byte	$20
	.byte	$20
	.byte	$00
	.byte	$00
	.byte	$CD
	.byte	$00
	.byte	$00
	.byte	$CD
	.byte	$00
	.byte	$20
	.byte	$20
	.byte	$20
	.byte	$20
	.byte	$20
	.byte	$20
	.byte	$20
	.byte	$20
	.byte	$20
	.byte	$20
	.byte	$20
	.byte	$20
	.byte	$20
	.byte	$20
	.byte	$20
	.byte	$20
	.byte	$20
	.byte	$20
	.byte	$20
	.byte	$20
	.byte	$20
	.byte	$20
	.byte	$20
	.byte	$20
	.byte	$20
	.byte	$00
	.byte	$00
	.byte	$CD
	.byte	$00
	.byte	$00
	.byte	$CD
	.byte	$00
	.byte	$73
	.byte	$63
	.byte	$61
	.byte	$74
	.byte	$74
	.byte	$65
	.byte	$72
	.byte	$65
	.byte	$64
	.byte	$2C
	.byte	$20
	.byte	$6C
	.byte	$69
	.byte	$76
	.byte	$65
	.byte	$73
	.byte	$20
	.byte	$72
	.byte	$75
	.byte	$69
	.byte	$6E
	.byte	$65
	.byte	$64
	.byte	$2E
	.byte	$20
	.byte	$00
	.byte	$00
	.byte	$CD
	.byte	$00
	.byte	$00
	.byte	$CD
	.byte	$00
	.byte	$20
	.byte	$20
	.byte	$20
	.byte	$20
	.byte	$20
	.byte	$20
	.byte	$20
	.byte	$20
	.byte	$20
	.byte	$20
	.byte	$20
	.byte	$20
	.byte	$20
	.byte	$20
	.byte	$20
	.byte	$20
	.byte	$20
	.byte	$20
	.byte	$20
	.byte	$20
	.byte	$20
	.byte	$20
	.byte	$20
	.byte	$20
	.byte	$20
	.byte	$00
	.byte	$00
	.byte	$CD
	.byte	$00
	.byte	$00
	.byte	$CD
	.byte	$00
	.byte	$41
	.byte	$6C
	.byte	$6C
	.byte	$20
	.byte	$72
	.byte	$75
	.byte	$6E
	.byte	$20
	.byte	$61
	.byte	$73
	.byte	$20
	.byte	$66
	.byte	$61
	.byte	$72
	.byte	$20
	.byte	$66
	.byte	$72
	.byte	$6F
	.byte	$6D
	.byte	$20
	.byte	$74
	.byte	$68
	.byte	$69
	.byte	$73
	.byte	$20
	.byte	$00
	.byte	$00
	.byte	$CD
	.byte	$00
	.byte	$00
	.byte	$CD
	.byte	$00
	.byte	$20
	.byte	$20
	.byte	$20
	.byte	$20
	.byte	$20
	.byte	$20
	.byte	$20
	.byte	$20
	.byte	$20
	.byte	$20
	.byte	$20
	.byte	$20
	.byte	$20
	.byte	$20
	.byte	$20
	.byte	$20
	.byte	$20
	.byte	$20
	.byte	$20
	.byte	$20
	.byte	$20
	.byte	$20
	.byte	$20
	.byte	$20
	.byte	$20
	.byte	$00
	.byte	$00
	.byte	$CD
	.byte	$00
	.byte	$00
	.byte	$CD
	.byte	$00
	.byte	$77
	.byte	$61
	.byte	$72
	.byte	$20
	.byte	$61
	.byte	$73
	.byte	$20
	.byte	$74
	.byte	$68
	.byte	$65
	.byte	$79
	.byte	$20
	.byte	$63
	.byte	$61
	.byte	$6E
	.byte	$2E
	.byte	$2E
	.byte	$2E
	.byte	$20
	.byte	$20
	.byte	$20
	.byte	$20
	.byte	$20
	.byte	$20
	.byte	$20
	.byte	$00
	.byte	$00
	.byte	$CD
	.byte	$00
	.byte	$00
	.byte	$CD
	.byte	$00
	.byte	$20
	.byte	$20
	.byte	$20
	.byte	$20
	.byte	$20
	.byte	$20
	.byte	$20
	.byte	$20
	.byte	$20
	.byte	$20
	.byte	$20
	.byte	$20
	.byte	$20
	.byte	$20
	.byte	$20
	.byte	$20
	.byte	$20
	.byte	$20
	.byte	$20
	.byte	$20
	.byte	$20
	.byte	$20
	.byte	$20
	.byte	$20
	.byte	$20
	.byte	$00
	.byte	$00
	.byte	$CD
	.byte	$00
	.byte	$00
	.byte	$CD
	.byte	$00
	.byte	$20
	.byte	$20
	.byte	$20
	.byte	$20
	.byte	$20
	.byte	$20
	.byte	$20
	.byte	$20
	.byte	$20
	.byte	$20
	.byte	$20
	.byte	$20
	.byte	$20
	.byte	$20
	.byte	$20
	.byte	$20
	.byte	$20
	.byte	$20
	.byte	$20
	.byte	$20
	.byte	$20
	.byte	$20
	.byte	$20
	.byte	$20
	.byte	$20
	.byte	$00
	.byte	$00
	.byte	$CD
	.byte	$00
	.byte	$00
	.byte	$CD
	.byte	$00
	.byte	$20
	.byte	$20
	.byte	$20
	.byte	$20
	.byte	$20
	.byte	$20
	.byte	$20
	.byte	$20
	.byte	$20
	.byte	$20
	.byte	$20
	.byte	$20
	.byte	$20
	.byte	$20
	.byte	$20
	.byte	$20
	.byte	$20
	.byte	$20
	.byte	$20
	.byte	$20
	.byte	$20
	.byte	$20
	.byte	$20
	.byte	$20
	.byte	$20
	.byte	$00
	.byte	$00
	.byte	$CD
	.byte	$00
	.byte	$00
	.byte	$CD
	.byte	$00
	.byte	$42
	.byte	$75
	.byte	$74
	.byte	$20
	.byte	$61
	.byte	$20
	.byte	$66
	.byte	$65
	.byte	$77
	.byte	$20
	.byte	$57
	.byte	$41
	.byte	$52
	.byte	$52
	.byte	$49
	.byte	$4F
	.byte	$52
	.byte	$53
	.byte	$20
	.byte	$73
	.byte	$74
	.byte	$61
	.byte	$6E
	.byte	$64
	.byte	$20
	.byte	$00
	.byte	$00
	.byte	$CD
	.byte	$00
	.byte	$00
	.byte	$CD
	.byte	$00
	.byte	$20
	.byte	$20
	.byte	$20
	.byte	$20
	.byte	$20
	.byte	$20
	.byte	$20
	.byte	$20
	.byte	$20
	.byte	$20
	.byte	$20
	.byte	$20
	.byte	$20
	.byte	$20
	.byte	$20
	.byte	$20
	.byte	$20
	.byte	$20
	.byte	$20
	.byte	$20
	.byte	$20
	.byte	$20
	.byte	$20
	.byte	$20
	.byte	$20
	.byte	$00
	.byte	$00
	.byte	$CD
	.byte	$00
	.byte	$00
	.byte	$CD
	.byte	$00
	.byte	$75
	.byte	$70
	.byte	$20
	.byte	$74
	.byte	$6F
	.byte	$20
	.byte	$5A
	.byte	$41
	.byte	$52
	.byte	$51
	.byte	$41
	.byte	$4B
	.byte	$2C
	.byte	$20
	.byte	$61
	.byte	$6E
	.byte	$64
	.byte	$20
	.byte	$68
	.byte	$61
	.byte	$76
	.byte	$65
	.byte	$20
	.byte	$20
	.byte	$20
	.byte	$00
	.byte	$00
	.byte	$CD
	.byte	$00
	.byte	$00
	.byte	$CD
	.byte	$00
	.byte	$20
	.byte	$20
	.byte	$20
	.byte	$20
	.byte	$20
	.byte	$20
	.byte	$20
	.byte	$20
	.byte	$20
	.byte	$20
	.byte	$20
	.byte	$20
	.byte	$20
	.byte	$20
	.byte	$20
	.byte	$20
	.byte	$20
	.byte	$20
	.byte	$20
	.byte	$20
	.byte	$20
	.byte	$20
	.byte	$20
	.byte	$20
	.byte	$20
	.byte	$00
	.byte	$00
	.byte	$CD
	.byte	$00
	.byte	$00
	.byte	$CD
	.byte	$00
	.byte	$62
	.byte	$72
	.byte	$61
	.byte	$76
	.byte	$65
	.byte	$72
	.byte	$79
	.byte	$20
	.byte	$74
	.byte	$6F
	.byte	$20
	.byte	$63
	.byte	$68
	.byte	$61
	.byte	$6C
	.byte	$6C
	.byte	$65
	.byte	$6E
	.byte	$67
	.byte	$65
	.byte	$20
	.byte	$68
	.byte	$69
	.byte	$6D
	.byte	$2E
	.byte	$00
	.byte	$00
	.byte	$CD
	.byte	$00
	.byte	$00
	.byte	$CD
	.byte	$00
	.byte	$20
	.byte	$20
	.byte	$20
	.byte	$20
	.byte	$20
	.byte	$20
	.byte	$20
	.byte	$20
	.byte	$20
	.byte	$20
	.byte	$20
	.byte	$20
	.byte	$20
	.byte	$20
	.byte	$20
	.byte	$20
	.byte	$20
	.byte	$20
	.byte	$20
	.byte	$20
	.byte	$20
	.byte	$20
	.byte	$20
	.byte	$20
	.byte	$20
	.byte	$00
	.byte	$00
	.byte	$CD
	.byte	$00
	.byte	$00
	.byte	$CD
	.byte	$00
	.byte	$20
	.byte	$20
	.byte	$20
	.byte	$20
	.byte	$20
	.byte	$20
	.byte	$20
	.byte	$20
	.byte	$20
	.byte	$20
	.byte	$20
	.byte	$20
	.byte	$20
	.byte	$20
	.byte	$20
	.byte	$20
	.byte	$20
	.byte	$20
	.byte	$20
	.byte	$20
	.byte	$20
	.byte	$20
	.byte	$20
	.byte	$20
	.byte	$20
	.byte	$00
	.byte	$00
	.byte	$CD
	.byte	$00
	.byte	$EA
	.byte	$FA
	.byte	$FA
	.byte	$FA
	.byte	$AA
	.byte	$AA
	.byte	$AA
	.byte	$AA
	.byte	$AA
	.byte	$AA
	.byte	$AA
	.byte	$AA
	.byte	$AA
	.byte	$AA
	.byte	$AA
	.byte	$AA
	.byte	$AA
	.byte	$AA
	.byte	$AA
	.byte	$AA
	.byte	$AA
	.byte	$AA
	.byte	$AA
	.byte	$AA
	.byte	$AA
	.byte	$AA
	.byte	$AA
	.byte	$0A
	.byte	$0A
	.byte	$8A
	.byte	$AA
	.byte	$AA
	.byte	$AA
	.byte	$AA
	.byte	$A0
	.byte	$A0
	.byte	$AA
	.byte	$AA
	.byte	$AA
	.byte	$AA
	.byte	$AA
	.byte	$AA
	.byte	$AA
	.byte	$AA
	.byte	$AA
	.byte	$AA
	.byte	$AA
	.byte	$AA
	.byte	$A2
	.byte	$A0
	.byte	$A0
	.byte	$AA
	.byte	$AA
	.byte	$AA
	.byte	$AA
	.byte	$AA
	.byte	$0A
	.byte	$0A
	.byte	$0A
	.byte	$0A
	.byte	$0A
	.byte	$0A
	.byte	$0A
	.byte	$09
_intro_scroll_3:
	.byte	$00
	.byte	$CD
	.byte	$00
	.byte	$20
	.byte	$20
	.byte	$20
	.byte	$20
	.byte	$20
	.byte	$20
	.byte	$20
	.byte	$20
	.byte	$20
	.byte	$20
	.byte	$20
	.byte	$20
	.byte	$20
	.byte	$20
	.byte	$20
	.byte	$20
	.byte	$20
	.byte	$20
	.byte	$20
	.byte	$20
	.byte	$20
	.byte	$20
	.byte	$20
	.byte	$20
	.byte	$20
	.byte	$00
	.byte	$00
	.byte	$CD
	.byte	$00
	.byte	$00
	.byte	$CD
	.byte	$00
	.byte	$54
	.byte	$68
	.byte	$65
	.byte	$20
	.byte	$73
	.byte	$65
	.byte	$61
	.byte	$72
	.byte	$63
	.byte	$68
	.byte	$20
	.byte	$69
	.byte	$73
	.byte	$20
	.byte	$6F
	.byte	$6E
	.byte	$20
	.byte	$66
	.byte	$6F
	.byte	$72
	.byte	$20
	.byte	$74
	.byte	$68
	.byte	$65
	.byte	$20
	.byte	$00
	.byte	$00
	.byte	$CD
	.byte	$00
	.byte	$00
	.byte	$CD
	.byte	$00
	.byte	$20
	.byte	$20
	.byte	$20
	.byte	$20
	.byte	$20
	.byte	$20
	.byte	$20
	.byte	$20
	.byte	$20
	.byte	$20
	.byte	$20
	.byte	$20
	.byte	$20
	.byte	$20
	.byte	$20
	.byte	$20
	.byte	$20
	.byte	$20
	.byte	$20
	.byte	$20
	.byte	$20
	.byte	$20
	.byte	$20
	.byte	$20
	.byte	$20
	.byte	$00
	.byte	$00
	.byte	$CD
	.byte	$00
	.byte	$00
	.byte	$CD
	.byte	$00
	.byte	$42
	.byte	$41
	.byte	$52
	.byte	$54
	.byte	$48
	.byte	$4F
	.byte	$49
	.byte	$44
	.byte	$20
	.byte	$63
	.byte	$72
	.byte	$79
	.byte	$73
	.byte	$74
	.byte	$61
	.byte	$6C
	.byte	$73
	.byte	$2C
	.byte	$20
	.byte	$72
	.byte	$61
	.byte	$72
	.byte	$65
	.byte	$20
	.byte	$20
	.byte	$00
	.byte	$00
	.byte	$CD
	.byte	$00
	.byte	$00
	.byte	$CD
	.byte	$00
	.byte	$20
	.byte	$20
	.byte	$20
	.byte	$20
	.byte	$20
	.byte	$20
	.byte	$20
	.byte	$20
	.byte	$20
	.byte	$20
	.byte	$20
	.byte	$20
	.byte	$20
	.byte	$20
	.byte	$20
	.byte	$20
	.byte	$20
	.byte	$20
	.byte	$20
	.byte	$20
	.byte	$20
	.byte	$20
	.byte	$20
	.byte	$20
	.byte	$20
	.byte	$00
	.byte	$00
	.byte	$CD
	.byte	$00
	.byte	$00
	.byte	$CD
	.byte	$00
	.byte	$73
	.byte	$75
	.byte	$70
	.byte	$65
	.byte	$72
	.byte	$6E
	.byte	$6F
	.byte	$76
	.byte	$61
	.byte	$65
	.byte	$20
	.byte	$66
	.byte	$72
	.byte	$61
	.byte	$67
	.byte	$6D
	.byte	$65
	.byte	$6E
	.byte	$74
	.byte	$73
	.byte	$20
	.byte	$74
	.byte	$68
	.byte	$61
	.byte	$74
	.byte	$00
	.byte	$00
	.byte	$CD
	.byte	$00
	.byte	$00
	.byte	$CD
	.byte	$00
	.byte	$20
	.byte	$20
	.byte	$20
	.byte	$20
	.byte	$20
	.byte	$20
	.byte	$20
	.byte	$20
	.byte	$20
	.byte	$20
	.byte	$20
	.byte	$20
	.byte	$20
	.byte	$20
	.byte	$20
	.byte	$20
	.byte	$20
	.byte	$20
	.byte	$20
	.byte	$20
	.byte	$20
	.byte	$20
	.byte	$20
	.byte	$20
	.byte	$20
	.byte	$00
	.byte	$00
	.byte	$CD
	.byte	$00
	.byte	$00
	.byte	$CD
	.byte	$00
	.byte	$61
	.byte	$72
	.byte	$65
	.byte	$20
	.byte	$73
	.byte	$61
	.byte	$69
	.byte	$64
	.byte	$20
	.byte	$74
	.byte	$6F
	.byte	$20
	.byte	$68
	.byte	$61
	.byte	$76
	.byte	$65
	.byte	$20
	.byte	$65
	.byte	$6E
	.byte	$6F
	.byte	$72
	.byte	$6D
	.byte	$6F
	.byte	$75
	.byte	$73
	.byte	$00
	.byte	$00
	.byte	$CD
	.byte	$00
	.byte	$00
	.byte	$CD
	.byte	$00
	.byte	$20
	.byte	$20
	.byte	$20
	.byte	$20
	.byte	$20
	.byte	$20
	.byte	$20
	.byte	$20
	.byte	$20
	.byte	$20
	.byte	$20
	.byte	$20
	.byte	$20
	.byte	$20
	.byte	$20
	.byte	$20
	.byte	$20
	.byte	$20
	.byte	$20
	.byte	$20
	.byte	$20
	.byte	$20
	.byte	$20
	.byte	$20
	.byte	$20
	.byte	$00
	.byte	$00
	.byte	$CD
	.byte	$00
	.byte	$00
	.byte	$CD
	.byte	$00
	.byte	$70
	.byte	$6F
	.byte	$77
	.byte	$65
	.byte	$72
	.byte	$2E
	.byte	$20
	.byte	$50
	.byte	$6F
	.byte	$73
	.byte	$73
	.byte	$69
	.byte	$62
	.byte	$6C
	.byte	$79
	.byte	$20
	.byte	$65
	.byte	$6E
	.byte	$6F
	.byte	$75
	.byte	$67
	.byte	$68
	.byte	$20
	.byte	$20
	.byte	$20
	.byte	$00
	.byte	$00
	.byte	$CD
	.byte	$00
	.byte	$00
	.byte	$CD
	.byte	$00
	.byte	$20
	.byte	$20
	.byte	$20
	.byte	$20
	.byte	$20
	.byte	$20
	.byte	$20
	.byte	$20
	.byte	$20
	.byte	$20
	.byte	$20
	.byte	$20
	.byte	$20
	.byte	$20
	.byte	$20
	.byte	$20
	.byte	$20
	.byte	$20
	.byte	$20
	.byte	$20
	.byte	$20
	.byte	$20
	.byte	$20
	.byte	$20
	.byte	$20
	.byte	$00
	.byte	$00
	.byte	$CD
	.byte	$00
	.byte	$00
	.byte	$CD
	.byte	$00
	.byte	$70
	.byte	$6F
	.byte	$77
	.byte	$65
	.byte	$72
	.byte	$20
	.byte	$74
	.byte	$6F
	.byte	$20
	.byte	$73
	.byte	$74
	.byte	$6F
	.byte	$70
	.byte	$20
	.byte	$5A
	.byte	$41
	.byte	$52
	.byte	$51
	.byte	$41
	.byte	$4B
	.byte	$20
	.byte	$20
	.byte	$20
	.byte	$20
	.byte	$20
	.byte	$00
	.byte	$00
	.byte	$CD
	.byte	$00
	.byte	$00
	.byte	$CD
	.byte	$00
	.byte	$20
	.byte	$20
	.byte	$20
	.byte	$20
	.byte	$20
	.byte	$20
	.byte	$20
	.byte	$20
	.byte	$20
	.byte	$20
	.byte	$20
	.byte	$20
	.byte	$20
	.byte	$20
	.byte	$20
	.byte	$20
	.byte	$20
	.byte	$20
	.byte	$20
	.byte	$20
	.byte	$20
	.byte	$20
	.byte	$20
	.byte	$20
	.byte	$20
	.byte	$00
	.byte	$00
	.byte	$CD
	.byte	$00
	.byte	$00
	.byte	$CD
	.byte	$00
	.byte	$62
	.byte	$65
	.byte	$66
	.byte	$6F
	.byte	$72
	.byte	$65
	.byte	$20
	.byte	$68
	.byte	$69
	.byte	$73
	.byte	$20
	.byte	$70
	.byte	$6C
	.byte	$61
	.byte	$6E
	.byte	$73
	.byte	$20
	.byte	$63
	.byte	$6F
	.byte	$6D
	.byte	$65
	.byte	$20
	.byte	$74
	.byte	$6F
	.byte	$20
	.byte	$00
	.byte	$00
	.byte	$CD
	.byte	$00
	.byte	$00
	.byte	$CD
	.byte	$00
	.byte	$20
	.byte	$20
	.byte	$20
	.byte	$20
	.byte	$20
	.byte	$20
	.byte	$20
	.byte	$20
	.byte	$20
	.byte	$20
	.byte	$20
	.byte	$20
	.byte	$20
	.byte	$20
	.byte	$20
	.byte	$20
	.byte	$20
	.byte	$20
	.byte	$20
	.byte	$20
	.byte	$20
	.byte	$20
	.byte	$20
	.byte	$20
	.byte	$20
	.byte	$00
	.byte	$00
	.byte	$CD
	.byte	$00
	.byte	$00
	.byte	$CD
	.byte	$00
	.byte	$74
	.byte	$68
	.byte	$65
	.byte	$69
	.byte	$72
	.byte	$20
	.byte	$65
	.byte	$76
	.byte	$69
	.byte	$6C
	.byte	$20
	.byte	$63
	.byte	$6F
	.byte	$6E
	.byte	$63
	.byte	$6C
	.byte	$75
	.byte	$73
	.byte	$69
	.byte	$6F
	.byte	$6E
	.byte	$2E
	.byte	$2E
	.byte	$2E
	.byte	$20
	.byte	$00
	.byte	$00
	.byte	$CD
	.byte	$00
	.byte	$00
	.byte	$CD
	.byte	$00
	.byte	$20
	.byte	$20
	.byte	$20
	.byte	$20
	.byte	$20
	.byte	$20
	.byte	$20
	.byte	$20
	.byte	$20
	.byte	$20
	.byte	$20
	.byte	$20
	.byte	$20
	.byte	$20
	.byte	$20
	.byte	$20
	.byte	$20
	.byte	$20
	.byte	$20
	.byte	$20
	.byte	$20
	.byte	$20
	.byte	$20
	.byte	$20
	.byte	$20
	.byte	$00
	.byte	$00
	.byte	$CD
	.byte	$00
	.byte	$00
	.byte	$CD
	.byte	$00
	.byte	$20
	.byte	$20
	.byte	$20
	.byte	$20
	.byte	$20
	.byte	$20
	.byte	$20
	.byte	$20
	.byte	$20
	.byte	$20
	.byte	$20
	.byte	$20
	.byte	$20
	.byte	$20
	.byte	$20
	.byte	$20
	.byte	$20
	.byte	$20
	.byte	$20
	.byte	$20
	.byte	$20
	.byte	$20
	.byte	$20
	.byte	$20
	.byte	$20
	.byte	$00
	.byte	$00
	.byte	$CD
	.byte	$00
	.byte	$00
	.byte	$CD
	.byte	$00
	.byte	$20
	.byte	$20
	.byte	$20
	.byte	$20
	.byte	$20
	.byte	$20
	.byte	$20
	.byte	$20
	.byte	$20
	.byte	$20
	.byte	$20
	.byte	$20
	.byte	$20
	.byte	$20
	.byte	$20
	.byte	$20
	.byte	$20
	.byte	$20
	.byte	$20
	.byte	$20
	.byte	$20
	.byte	$20
	.byte	$20
	.byte	$20
	.byte	$20
	.byte	$00
	.byte	$00
	.byte	$CD
	.byte	$00
	.byte	$00
	.byte	$CD
	.byte	$00
	.byte	$20
	.byte	$20
	.byte	$20
	.byte	$20
	.byte	$20
	.byte	$20
	.byte	$20
	.byte	$20
	.byte	$20
	.byte	$20
	.byte	$20
	.byte	$20
	.byte	$20
	.byte	$20
	.byte	$20
	.byte	$20
	.byte	$20
	.byte	$20
	.byte	$20
	.byte	$20
	.byte	$20
	.byte	$20
	.byte	$20
	.byte	$20
	.byte	$20
	.byte	$00
	.byte	$00
	.byte	$CD
	.byte	$00
	.byte	$00
	.byte	$CD
	.byte	$00
	.byte	$54
	.byte	$68
	.byte	$69
	.byte	$73
	.byte	$20
	.byte	$69
	.byte	$73
	.byte	$20
	.byte	$61
	.byte	$20
	.byte	$74
	.byte	$69
	.byte	$6D
	.byte	$65
	.byte	$20
	.byte	$66
	.byte	$6F
	.byte	$72
	.byte	$20
	.byte	$68
	.byte	$65
	.byte	$72
	.byte	$6F
	.byte	$73
	.byte	$2E
	.byte	$00
	.byte	$00
	.byte	$CD
	.byte	$00
	.byte	$00
	.byte	$CD
	.byte	$00
	.byte	$20
	.byte	$20
	.byte	$20
	.byte	$20
	.byte	$20
	.byte	$20
	.byte	$20
	.byte	$20
	.byte	$20
	.byte	$20
	.byte	$20
	.byte	$20
	.byte	$20
	.byte	$20
	.byte	$20
	.byte	$20
	.byte	$20
	.byte	$20
	.byte	$20
	.byte	$20
	.byte	$20
	.byte	$20
	.byte	$20
	.byte	$20
	.byte	$20
	.byte	$00
	.byte	$00
	.byte	$CD
	.byte	$00
	.byte	$00
	.byte	$CD
	.byte	$00
	.byte	$20
	.byte	$20
	.byte	$20
	.byte	$20
	.byte	$20
	.byte	$20
	.byte	$20
	.byte	$20
	.byte	$20
	.byte	$20
	.byte	$20
	.byte	$20
	.byte	$20
	.byte	$20
	.byte	$20
	.byte	$20
	.byte	$20
	.byte	$20
	.byte	$20
	.byte	$20
	.byte	$20
	.byte	$20
	.byte	$20
	.byte	$20
	.byte	$20
	.byte	$00
	.byte	$00
	.byte	$CD
	.byte	$00
	.byte	$00
	.byte	$CD
	.byte	$00
	.byte	$20
	.byte	$20
	.byte	$20
	.byte	$20
	.byte	$20
	.byte	$20
	.byte	$20
	.byte	$20
	.byte	$20
	.byte	$20
	.byte	$20
	.byte	$20
	.byte	$20
	.byte	$20
	.byte	$20
	.byte	$20
	.byte	$20
	.byte	$20
	.byte	$20
	.byte	$20
	.byte	$20
	.byte	$20
	.byte	$20
	.byte	$20
	.byte	$20
	.byte	$00
	.byte	$00
	.byte	$CD
	.byte	$00
	.byte	$00
	.byte	$CD
	.byte	$00
	.byte	$20
	.byte	$20
	.byte	$20
	.byte	$20
	.byte	$20
	.byte	$20
	.byte	$20
	.byte	$20
	.byte	$20
	.byte	$20
	.byte	$20
	.byte	$20
	.byte	$20
	.byte	$20
	.byte	$20
	.byte	$20
	.byte	$20
	.byte	$20
	.byte	$20
	.byte	$20
	.byte	$20
	.byte	$20
	.byte	$20
	.byte	$20
	.byte	$20
	.byte	$00
	.byte	$00
	.byte	$CD
	.byte	$00
	.byte	$00
	.byte	$CD
	.byte	$00
	.byte	$42
	.byte	$75
	.byte	$74
	.byte	$20
	.byte	$6E
	.byte	$6F
	.byte	$6E
	.byte	$65
	.byte	$20
	.byte	$6F
	.byte	$66
	.byte	$20
	.byte	$74
	.byte	$68
	.byte	$61
	.byte	$74
	.byte	$20
	.byte	$69
	.byte	$73
	.byte	$20
	.byte	$66
	.byte	$6F
	.byte	$72
	.byte	$20
	.byte	$20
	.byte	$00
	.byte	$00
	.byte	$CD
	.byte	$00
	.byte	$00
	.byte	$CD
	.byte	$00
	.byte	$20
	.byte	$20
	.byte	$20
	.byte	$20
	.byte	$20
	.byte	$20
	.byte	$20
	.byte	$20
	.byte	$20
	.byte	$20
	.byte	$20
	.byte	$20
	.byte	$20
	.byte	$20
	.byte	$20
	.byte	$20
	.byte	$20
	.byte	$20
	.byte	$20
	.byte	$20
	.byte	$20
	.byte	$20
	.byte	$20
	.byte	$20
	.byte	$20
	.byte	$00
	.byte	$00
	.byte	$CD
	.byte	$00
	.byte	$00
	.byte	$CD
	.byte	$00
	.byte	$79
	.byte	$6F
	.byte	$75
	.byte	$2E
	.byte	$20
	.byte	$59
	.byte	$6F
	.byte	$75
	.byte	$20
	.byte	$61
	.byte	$72
	.byte	$65
	.byte	$20
	.byte	$61
	.byte	$20
	.byte	$68
	.byte	$75
	.byte	$6D
	.byte	$61
	.byte	$6E
	.byte	$20
	.byte	$6F
	.byte	$66
	.byte	$20
	.byte	$20
	.byte	$00
	.byte	$00
	.byte	$CD
	.byte	$00
	.byte	$00
	.byte	$CD
	.byte	$00
	.byte	$20
	.byte	$20
	.byte	$20
	.byte	$20
	.byte	$20
	.byte	$20
	.byte	$20
	.byte	$20
	.byte	$20
	.byte	$20
	.byte	$20
	.byte	$20
	.byte	$20
	.byte	$20
	.byte	$20
	.byte	$20
	.byte	$20
	.byte	$20
	.byte	$20
	.byte	$20
	.byte	$20
	.byte	$20
	.byte	$20
	.byte	$20
	.byte	$20
	.byte	$00
	.byte	$00
	.byte	$CD
	.byte	$00
	.byte	$00
	.byte	$CD
	.byte	$00
	.byte	$65
	.byte	$61
	.byte	$72
	.byte	$74
	.byte	$68
	.byte	$2C
	.byte	$20
	.byte	$61
	.byte	$20
	.byte	$73
	.byte	$6D
	.byte	$61
	.byte	$6C
	.byte	$6C
	.byte	$20
	.byte	$70
	.byte	$6C
	.byte	$61
	.byte	$6E
	.byte	$65
	.byte	$74
	.byte	$20
	.byte	$6F
	.byte	$6E
	.byte	$20
	.byte	$00
	.byte	$00
	.byte	$CD
	.byte	$00
	.byte	$AA
	.byte	$AA
	.byte	$AA
	.byte	$AA
	.byte	$AA
	.byte	$AA
	.byte	$AA
	.byte	$AA
	.byte	$AA
	.byte	$AA
	.byte	$AA
	.byte	$AA
	.byte	$AA
	.byte	$AA
	.byte	$AA
	.byte	$AA
	.byte	$AA
	.byte	$AA
	.byte	$AA
	.byte	$AA
	.byte	$AA
	.byte	$AA
	.byte	$AA
	.byte	$AA
	.byte	$AA
	.byte	$AA
	.byte	$AA
	.byte	$AA
	.byte	$AA
	.byte	$AA
	.byte	$AA
	.byte	$AA
	.byte	$AA
	.byte	$AA
	.byte	$AA
	.byte	$AA
	.byte	$AA
	.byte	$A6
	.byte	$A9
	.byte	$AA
	.byte	$AA
	.byte	$AA
	.byte	$AA
	.byte	$AA
	.byte	$AA
	.byte	$AA
	.byte	$AA
	.byte	$AA
	.byte	$AA
	.byte	$AA
	.byte	$AA
	.byte	$AA
	.byte	$AA
	.byte	$AA
	.byte	$AA
	.byte	$AA
	.byte	$0A
	.byte	$0A
	.byte	$0A
	.byte	$0A
	.byte	$0A
	.byte	$06
	.byte	$05
	.byte	$09
_intro_scroll_4:
	.byte	$00
	.byte	$CD
	.byte	$00
	.byte	$20
	.byte	$20
	.byte	$20
	.byte	$20
	.byte	$20
	.byte	$20
	.byte	$20
	.byte	$20
	.byte	$20
	.byte	$20
	.byte	$20
	.byte	$20
	.byte	$20
	.byte	$20
	.byte	$20
	.byte	$20
	.byte	$20
	.byte	$20
	.byte	$20
	.byte	$20
	.byte	$20
	.byte	$20
	.byte	$20
	.byte	$20
	.byte	$20
	.byte	$00
	.byte	$00
	.byte	$CD
	.byte	$00
	.byte	$00
	.byte	$CD
	.byte	$00
	.byte	$74
	.byte	$68
	.byte	$65
	.byte	$20
	.byte	$6F
	.byte	$75
	.byte	$74
	.byte	$65
	.byte	$72
	.byte	$20
	.byte	$65
	.byte	$64
	.byte	$67
	.byte	$65
	.byte	$20
	.byte	$6F
	.byte	$66
	.byte	$20
	.byte	$61
	.byte	$20
	.byte	$73
	.byte	$6D
	.byte	$61
	.byte	$6C
	.byte	$6C
	.byte	$00
	.byte	$00
	.byte	$CD
	.byte	$00
	.byte	$00
	.byte	$CD
	.byte	$00
	.byte	$20
	.byte	$20
	.byte	$20
	.byte	$20
	.byte	$20
	.byte	$20
	.byte	$20
	.byte	$20
	.byte	$20
	.byte	$20
	.byte	$20
	.byte	$20
	.byte	$20
	.byte	$20
	.byte	$20
	.byte	$20
	.byte	$20
	.byte	$20
	.byte	$20
	.byte	$20
	.byte	$20
	.byte	$20
	.byte	$20
	.byte	$20
	.byte	$20
	.byte	$00
	.byte	$00
	.byte	$CD
	.byte	$00
	.byte	$00
	.byte	$CD
	.byte	$00
	.byte	$67
	.byte	$61
	.byte	$6C
	.byte	$61
	.byte	$78
	.byte	$79
	.byte	$2E
	.byte	$20
	.byte	$59
	.byte	$6F
	.byte	$75
	.byte	$20
	.byte	$6B
	.byte	$6E
	.byte	$6F
	.byte	$77
	.byte	$20
	.byte	$6E
	.byte	$6F
	.byte	$74
	.byte	$68
	.byte	$69
	.byte	$6E
	.byte	$67
	.byte	$20
	.byte	$00
	.byte	$00
	.byte	$CD
	.byte	$00
	.byte	$00
	.byte	$CD
	.byte	$00
	.byte	$20
	.byte	$20
	.byte	$20
	.byte	$20
	.byte	$20
	.byte	$20
	.byte	$20
	.byte	$20
	.byte	$20
	.byte	$20
	.byte	$20
	.byte	$20
	.byte	$20
	.byte	$20
	.byte	$20
	.byte	$20
	.byte	$20
	.byte	$20
	.byte	$20
	.byte	$20
	.byte	$20
	.byte	$20
	.byte	$20
	.byte	$20
	.byte	$20
	.byte	$00
	.byte	$00
	.byte	$CD
	.byte	$00
	.byte	$00
	.byte	$CD
	.byte	$00
	.byte	$6F
	.byte	$66
	.byte	$20
	.byte	$73
	.byte	$70
	.byte	$61
	.byte	$63
	.byte	$65
	.byte	$20
	.byte	$77
	.byte	$61
	.byte	$72
	.byte	$73
	.byte	$20
	.byte	$61
	.byte	$6E
	.byte	$64
	.byte	$20
	.byte	$68
	.byte	$65
	.byte	$72
	.byte	$6F
	.byte	$73
	.byte	$2E
	.byte	$20
	.byte	$00
	.byte	$00
	.byte	$CD
	.byte	$00
	.byte	$00
	.byte	$CD
	.byte	$00
	.byte	$20
	.byte	$20
	.byte	$20
	.byte	$20
	.byte	$20
	.byte	$20
	.byte	$20
	.byte	$20
	.byte	$20
	.byte	$20
	.byte	$20
	.byte	$20
	.byte	$20
	.byte	$20
	.byte	$20
	.byte	$20
	.byte	$20
	.byte	$20
	.byte	$20
	.byte	$20
	.byte	$20
	.byte	$20
	.byte	$20
	.byte	$20
	.byte	$20
	.byte	$00
	.byte	$00
	.byte	$CD
	.byte	$00
	.byte	$00
	.byte	$CD
	.byte	$00
	.byte	$59
	.byte	$6F
	.byte	$75
	.byte	$20
	.byte	$6F
	.byte	$6E
	.byte	$6C
	.byte	$79
	.byte	$20
	.byte	$6B
	.byte	$6E
	.byte	$6F
	.byte	$77
	.byte	$20
	.byte	$6F
	.byte	$6E
	.byte	$65
	.byte	$20
	.byte	$73
	.byte	$6B
	.byte	$69
	.byte	$6C
	.byte	$6C
	.byte	$2E
	.byte	$20
	.byte	$00
	.byte	$00
	.byte	$CD
	.byte	$00
	.byte	$00
	.byte	$CD
	.byte	$00
	.byte	$20
	.byte	$20
	.byte	$20
	.byte	$20
	.byte	$20
	.byte	$20
	.byte	$20
	.byte	$20
	.byte	$20
	.byte	$20
	.byte	$20
	.byte	$20
	.byte	$20
	.byte	$20
	.byte	$20
	.byte	$20
	.byte	$20
	.byte	$20
	.byte	$20
	.byte	$20
	.byte	$20
	.byte	$20
	.byte	$20
	.byte	$20
	.byte	$20
	.byte	$00
	.byte	$00
	.byte	$CD
	.byte	$00
	.byte	$00
	.byte	$CD
	.byte	$00
	.byte	$00
	.byte	$00
	.byte	$00
	.byte	$00
	.byte	$00
	.byte	$00
	.byte	$00
	.byte	$00
	.byte	$00
	.byte	$00
	.byte	$00
	.byte	$00
	.byte	$00
	.byte	$00
	.byte	$00
	.byte	$00
	.byte	$00
	.byte	$00
	.byte	$00
	.byte	$00
	.byte	$00
	.byte	$00
	.byte	$00
	.byte	$00
	.byte	$00
	.byte	$00
	.byte	$00
	.byte	$CD
	.byte	$00
	.byte	$00
	.byte	$CD
	.byte	$00
	.byte	$00
	.byte	$00
	.byte	$00
	.byte	$00
	.byte	$00
	.byte	$00
	.byte	$00
	.byte	$00
	.byte	$00
	.byte	$00
	.byte	$00
	.byte	$00
	.byte	$00
	.byte	$00
	.byte	$00
	.byte	$00
	.byte	$00
	.byte	$00
	.byte	$00
	.byte	$00
	.byte	$00
	.byte	$00
	.byte	$00
	.byte	$00
	.byte	$00
	.byte	$00
	.byte	$00
	.byte	$CD
	.byte	$00
	.byte	$00
	.byte	$CD
	.byte	$00
	.byte	$00
	.byte	$00
	.byte	$00
	.byte	$00
	.byte	$00
	.byte	$00
	.byte	$00
	.byte	$00
	.byte	$00
	.byte	$00
	.byte	$00
	.byte	$00
	.byte	$00
	.byte	$00
	.byte	$00
	.byte	$00
	.byte	$00
	.byte	$00
	.byte	$00
	.byte	$00
	.byte	$00
	.byte	$00
	.byte	$00
	.byte	$00
	.byte	$00
	.byte	$00
	.byte	$00
	.byte	$CD
	.byte	$00
	.byte	$00
	.byte	$CD
	.byte	$00
	.byte	$00
	.byte	$00
	.byte	$00
	.byte	$00
	.byte	$00
	.byte	$00
	.byte	$00
	.byte	$00
	.byte	$00
	.byte	$00
	.byte	$00
	.byte	$00
	.byte	$00
	.byte	$00
	.byte	$00
	.byte	$00
	.byte	$00
	.byte	$00
	.byte	$00
	.byte	$00
	.byte	$00
	.byte	$00
	.byte	$00
	.byte	$00
	.byte	$00
	.byte	$00
	.byte	$00
	.byte	$CD
	.byte	$00
	.byte	$00
	.byte	$CD
	.byte	$00
	.byte	$20
	.byte	$20
	.byte	$20
	.byte	$20
	.byte	$20
	.byte	$20
	.byte	$20
	.byte	$20
	.byte	$20
	.byte	$20
	.byte	$20
	.byte	$20
	.byte	$20
	.byte	$20
	.byte	$20
	.byte	$20
	.byte	$20
	.byte	$20
	.byte	$20
	.byte	$20
	.byte	$20
	.byte	$20
	.byte	$20
	.byte	$20
	.byte	$20
	.byte	$00
	.byte	$00
	.byte	$CD
	.byte	$00
	.byte	$00
	.byte	$CD
	.byte	$00
	.byte	$20
	.byte	$20
	.byte	$20
	.byte	$20
	.byte	$20
	.byte	$20
	.byte	$59
	.byte	$6F
	.byte	$75
	.byte	$20
	.byte	$70
	.byte	$75
	.byte	$6D
	.byte	$70
	.byte	$20
	.byte	$67
	.byte	$61
	.byte	$73
	.byte	$2E
	.byte	$20
	.byte	$20
	.byte	$20
	.byte	$20
	.byte	$20
	.byte	$20
	.byte	$00
	.byte	$00
	.byte	$CD
	.byte	$00
	.byte	$00
	.byte	$CD
	.byte	$00
	.byte	$00
	.byte	$00
	.byte	$00
	.byte	$00
	.byte	$00
	.byte	$00
	.byte	$00
	.byte	$00
	.byte	$00
	.byte	$00
	.byte	$00
	.byte	$00
	.byte	$00
	.byte	$00
	.byte	$00
	.byte	$00
	.byte	$00
	.byte	$00
	.byte	$00
	.byte	$00
	.byte	$00
	.byte	$00
	.byte	$00
	.byte	$00
	.byte	$00
	.byte	$00
	.byte	$00
	.byte	$CD
	.byte	$00
	.byte	$00
	.byte	$CD
	.byte	$00
	.byte	$00
	.byte	$00
	.byte	$00
	.byte	$00
	.byte	$00
	.byte	$00
	.byte	$00
	.byte	$00
	.byte	$00
	.byte	$00
	.byte	$00
	.byte	$00
	.byte	$00
	.byte	$00
	.byte	$00
	.byte	$00
	.byte	$00
	.byte	$00
	.byte	$00
	.byte	$00
	.byte	$00
	.byte	$00
	.byte	$00
	.byte	$00
	.byte	$00
	.byte	$00
	.byte	$00
	.byte	$CD
	.byte	$00
	.byte	$00
	.byte	$CD
	.byte	$00
	.byte	$00
	.byte	$00
	.byte	$00
	.byte	$00
	.byte	$00
	.byte	$00
	.byte	$00
	.byte	$00
	.byte	$00
	.byte	$00
	.byte	$00
	.byte	$00
	.byte	$00
	.byte	$00
	.byte	$00
	.byte	$00
	.byte	$00
	.byte	$00
	.byte	$00
	.byte	$00
	.byte	$00
	.byte	$00
	.byte	$00
	.byte	$00
	.byte	$00
	.byte	$00
	.byte	$00
	.byte	$CD
	.byte	$00
	.byte	$00
	.byte	$99
	.byte	$CE
	.byte	$CE
	.byte	$CE
	.byte	$CE
	.byte	$CE
	.byte	$CE
	.byte	$CE
	.byte	$CE
	.byte	$CE
	.byte	$CE
	.byte	$CE
	.byte	$CE
	.byte	$CE
	.byte	$CE
	.byte	$CE
	.byte	$CE
	.byte	$CE
	.byte	$CE
	.byte	$CE
	.byte	$CE
	.byte	$CE
	.byte	$CE
	.byte	$CE
	.byte	$CE
	.byte	$CE
	.byte	$CE
	.byte	$CE
	.byte	$CE
	.byte	$8A
	.byte	$00
	.byte	$00
	.byte	$00
	.byte	$00
	.byte	$00
	.byte	$00
	.byte	$00
	.byte	$00
	.byte	$00
	.byte	$00
	.byte	$00
	.byte	$00
	.byte	$00
	.byte	$00
	.byte	$00
	.byte	$00
	.byte	$00
	.byte	$00
	.byte	$00
	.byte	$00
	.byte	$00
	.byte	$00
	.byte	$00
	.byte	$00
	.byte	$00
	.byte	$00
	.byte	$00
	.byte	$00
	.byte	$00
	.byte	$00
	.byte	$00
	.byte	$00
	.byte	$00
	.byte	$00
	.byte	$00
	.byte	$00
	.byte	$00
	.byte	$00
	.byte	$00
	.byte	$00
	.byte	$00
	.byte	$00
	.byte	$00
	.byte	$00
	.byte	$00
	.byte	$00
	.byte	$00
	.byte	$00
	.byte	$00
	.byte	$00
	.byte	$00
	.byte	$00
	.byte	$00
	.byte	$00
	.byte	$00
	.byte	$00
	.byte	$00
	.byte	$00
	.byte	$00
	.byte	$00
	.byte	$00
	.byte	$00
	.byte	$00
	.byte	$00
	.byte	$00
	.byte	$00
	.byte	$00
	.byte	$00
	.byte	$00
	.byte	$00
	.byte	$00
	.byte	$00
	.byte	$00
	.byte	$00
	.byte	$00
	.byte	$00
	.byte	$00
	.byte	$00
	.byte	$00
	.byte	$00
	.byte	$00
	.byte	$00
	.byte	$00
	.byte	$00
	.byte	$00
	.byte	$00
	.byte	$00
	.byte	$00
	.byte	$00
	.byte	$00
	.byte	$00
	.byte	$00
	.byte	$00
	.byte	$00
	.byte	$00
	.byte	$00
	.byte	$00
	.byte	$00
	.byte	$00
	.byte	$00
	.byte	$00
	.byte	$00
	.byte	$00
	.byte	$00
	.byte	$00
	.byte	$00
	.byte	$00
	.byte	$00
	.byte	$00
	.byte	$00
	.byte	$00
	.byte	$00
	.byte	$00
	.byte	$00
	.byte	$00
	.byte	$00
	.byte	$00
	.byte	$00
	.byte	$00
	.byte	$00
	.byte	$00
	.byte	$00
	.byte	$00
	.byte	$00
	.byte	$00
	.byte	$00
	.byte	$00
	.byte	$00
	.byte	$00
	.byte	$00
	.byte	$00
	.byte	$00
	.byte	$00
	.byte	$00
	.byte	$00
	.byte	$00
	.byte	$00
	.byte	$00
	.byte	$00
	.byte	$00
	.byte	$00
	.byte	$00
	.byte	$00
	.byte	$00
	.byte	$00
	.byte	$00
	.byte	$00
	.byte	$00
	.byte	$00
	.byte	$00
	.byte	$00
	.byte	$00
	.byte	$00
	.byte	$00
	.byte	$00
	.byte	$00
	.byte	$00
	.byte	$00
	.byte	$00
	.byte	$00
	.byte	$00
	.byte	$00
	.byte	$00
	.byte	$00
	.byte	$00
	.byte	$00
	.byte	$00
	.byte	$00
	.byte	$00
	.byte	$00
	.byte	$00
	.byte	$00
	.byte	$00
	.byte	$00
	.byte	$00
	.byte	$00
	.byte	$00
	.byte	$00
	.byte	$00
	.byte	$00
	.byte	$00
	.byte	$00
	.byte	$00
	.byte	$00
	.byte	$00
	.byte	$00
	.byte	$00
	.byte	$00
	.byte	$00
	.byte	$00
	.byte	$00
	.byte	$00
	.byte	$00
	.byte	$00
	.byte	$00
	.byte	$00
	.byte	$00
	.byte	$00
	.byte	$00
	.byte	$00
	.byte	$00
	.byte	$00
	.byte	$00
	.byte	$00
	.byte	$00
	.byte	$00
	.byte	$00
	.byte	$00
	.byte	$00
	.byte	$00
	.byte	$00
	.byte	$00
	.byte	$00
	.byte	$00
	.byte	$00
	.byte	$00
	.byte	$00
	.byte	$00
	.byte	$00
	.byte	$00
	.byte	$00
	.byte	$00
	.byte	$00
	.byte	$00
	.byte	$00
	.byte	$00
	.byte	$00
	.byte	$00
	.byte	$00
	.byte	$00
	.byte	$00
	.byte	$00
	.byte	$00
	.byte	$00
	.byte	$00
	.byte	$00
	.byte	$00
	.byte	$00
	.byte	$00
	.byte	$00
	.byte	$00
	.byte	$00
	.byte	$00
	.byte	$00
	.byte	$00
	.byte	$00
	.byte	$00
	.byte	$00
	.byte	$00
	.byte	$00
	.byte	$00
	.byte	$00
	.byte	$00
	.byte	$00
	.byte	$00
	.byte	$00
	.byte	$00
	.byte	$00
	.byte	$00
	.byte	$00
	.byte	$00
	.byte	$00
	.byte	$00
	.byte	$00
	.byte	$00
	.byte	$00
	.byte	$00
	.byte	$00
	.byte	$00
	.byte	$00
	.byte	$00
	.byte	$00
	.byte	$00
	.byte	$00
	.byte	$00
	.byte	$00
	.byte	$00
	.byte	$00
	.byte	$00
	.byte	$00
	.byte	$00
	.byte	$00
	.byte	$00
	.byte	$00
	.byte	$00
	.byte	$00
	.byte	$00
	.byte	$00
	.byte	$00
	.byte	$00
	.byte	$00
	.byte	$00
	.byte	$00
	.byte	$00
	.byte	$00
	.byte	$00
	.byte	$00
	.byte	$00
	.byte	$00
	.byte	$00
	.byte	$00
	.byte	$00
	.byte	$00
	.byte	$00
	.byte	$00
	.byte	$00
	.byte	$00
	.byte	$00
	.byte	$00
	.byte	$00
	.byte	$00
	.byte	$00
	.byte	$00
	.byte	$00
	.byte	$00
	.byte	$00
	.byte	$00
	.byte	$00
	.byte	$00
	.byte	$00
	.byte	$00
	.byte	$00
	.byte	$00
	.byte	$00
	.byte	$00
	.byte	$00
	.byte	$00
	.byte	$00
	.byte	$00
	.byte	$00
	.byte	$00
	.byte	$00
	.byte	$00
	.byte	$00
	.byte	$00
	.byte	$00
	.byte	$00
	.byte	$00
	.byte	$00
	.byte	$00
	.byte	$00
	.byte	$00
	.byte	$00
	.byte	$00
	.byte	$00
	.byte	$00
	.byte	$00
	.byte	$00
	.byte	$00
	.byte	$00
	.byte	$00
	.byte	$00
	.byte	$00
	.byte	$AA
	.byte	$AA
	.byte	$AA
	.byte	$AA
	.byte	$AA
	.byte	$AA
	.byte	$AA
	.byte	$AA
	.byte	$AA
	.byte	$AA
	.byte	$AA
	.byte	$AA
	.byte	$AA
	.byte	$AA
	.byte	$AA
	.byte	$AA
	.byte	$AA
	.byte	$AA
	.byte	$AA
	.byte	$AA
	.byte	$AA
	.byte	$AA
	.byte	$AA
	.byte	$AA
	.byte	$AA
	.byte	$AA
	.byte	$AA
	.byte	$AA
	.byte	$AA
	.byte	$AA
	.byte	$AA
	.byte	$AA
	.byte	$AA
	.byte	$AA
	.byte	$AA
	.byte	$AA
	.byte	$AA
	.byte	$A6
	.byte	$A9
	.byte	$AA
	.byte	$AA
	.byte	$AA
	.byte	$AA
	.byte	$AA
	.byte	$AA
	.byte	$AA
	.byte	$AA
	.byte	$AA
	.byte	$AA
	.byte	$AA
	.byte	$AA
	.byte	$AA
	.byte	$AA
	.byte	$AA
	.byte	$AA
	.byte	$AA
	.byte	$0A
	.byte	$0A
	.byte	$0A
	.byte	$0A
	.byte	$0A
	.byte	$06
	.byte	$05
	.byte	$09
_intro_scroll_5:
	.byte	$00
	.byte	$16
	.byte	$00
	.byte	$00
	.byte	$00
	.byte	$00
	.byte	$00
	.byte	$00
	.byte	$00
	.byte	$00
	.byte	$00
	.byte	$00
	.byte	$00
	.byte	$00
	.byte	$00
	.byte	$00
	.byte	$00
	.byte	$00
	.byte	$00
	.byte	$00
	.byte	$00
	.byte	$00
	.byte	$00
	.byte	$00
	.byte	$00
	.byte	$00
	.byte	$00
	.byte	$00
	.byte	$00
	.byte	$00
	.byte	$16
	.byte	$00
	.byte	$00
	.byte	$16
	.byte	$00
	.byte	$20
	.byte	$20
	.byte	$20
	.byte	$20
	.byte	$20
	.byte	$20
	.byte	$50
	.byte	$75
	.byte	$6D
	.byte	$70
	.byte	$69
	.byte	$6E
	.byte	$67
	.byte	$20
	.byte	$67
	.byte	$61
	.byte	$73
	.byte	$2E
	.byte	$20
	.byte	$20
	.byte	$20
	.byte	$20
	.byte	$20
	.byte	$20
	.byte	$20
	.byte	$00
	.byte	$00
	.byte	$16
	.byte	$00
	.byte	$00
	.byte	$16
	.byte	$00
	.byte	$00
	.byte	$00
	.byte	$00
	.byte	$00
	.byte	$00
	.byte	$00
	.byte	$00
	.byte	$00
	.byte	$00
	.byte	$00
	.byte	$00
	.byte	$00
	.byte	$00
	.byte	$00
	.byte	$00
	.byte	$00
	.byte	$00
	.byte	$00
	.byte	$00
	.byte	$00
	.byte	$00
	.byte	$00
	.byte	$00
	.byte	$00
	.byte	$00
	.byte	$00
	.byte	$00
	.byte	$16
	.byte	$00
	.byte	$00
	.byte	$16
	.byte	$00
	.byte	$00
	.byte	$00
	.byte	$00
	.byte	$00
	.byte	$00
	.byte	$00
	.byte	$00
	.byte	$00
	.byte	$00
	.byte	$00
	.byte	$00
	.byte	$00
	.byte	$00
	.byte	$00
	.byte	$00
	.byte	$00
	.byte	$00
	.byte	$00
	.byte	$00
	.byte	$00
	.byte	$00
	.byte	$00
	.byte	$00
	.byte	$00
	.byte	$00
	.byte	$00
	.byte	$00
	.byte	$16
	.byte	$00
	.byte	$00
	.byte	$16
	.byte	$00
	.byte	$00
	.byte	$00
	.byte	$00
	.byte	$00
	.byte	$00
	.byte	$00
	.byte	$00
	.byte	$00
	.byte	$00
	.byte	$00
	.byte	$00
	.byte	$00
	.byte	$00
	.byte	$00
	.byte	$00
	.byte	$00
	.byte	$00
	.byte	$00
	.byte	$00
	.byte	$00
	.byte	$00
	.byte	$00
	.byte	$00
	.byte	$00
	.byte	$00
	.byte	$00
	.byte	$00
	.byte	$16
	.byte	$00
	.byte	$00
	.byte	$07
	.byte	$17
	.byte	$17
	.byte	$17
	.byte	$17
	.byte	$17
	.byte	$17
	.byte	$17
	.byte	$17
	.byte	$17
	.byte	$17
	.byte	$17
	.byte	$17
	.byte	$17
	.byte	$17
	.byte	$17
	.byte	$17
	.byte	$17
	.byte	$17
	.byte	$17
	.byte	$17
	.byte	$17
	.byte	$17
	.byte	$17
	.byte	$17
	.byte	$17
	.byte	$17
	.byte	$17
	.byte	$17
	.byte	$19
	.byte	$00
	.byte	$00
	.byte	$00
	.byte	$00
	.byte	$00
	.byte	$00
	.byte	$00
	.byte	$00
	.byte	$00
	.byte	$00
	.byte	$00
	.byte	$00
	.byte	$00
	.byte	$00
	.byte	$00
	.byte	$00
	.byte	$00
	.byte	$00
	.byte	$00
	.byte	$00
	.byte	$00
	.byte	$00
	.byte	$00
	.byte	$00
	.byte	$00
	.byte	$00
	.byte	$00
	.byte	$00
	.byte	$00
	.byte	$00
	.byte	$00
	.byte	$00
	.byte	$00
	.byte	$00
	.byte	$00
	.byte	$00
	.byte	$00
	.byte	$00
	.byte	$00
	.byte	$00
	.byte	$00
	.byte	$00
	.byte	$00
	.byte	$00
	.byte	$00
	.byte	$00
	.byte	$00
	.byte	$00
	.byte	$00
	.byte	$00
	.byte	$00
	.byte	$00
	.byte	$00
	.byte	$00
	.byte	$00
	.byte	$00
	.byte	$00
	.byte	$00
	.byte	$00
	.byte	$00
	.byte	$00
	.byte	$00
	.byte	$00
	.byte	$00
	.byte	$00
	.byte	$00
	.byte	$00
	.byte	$00
	.byte	$00
	.byte	$00
	.byte	$00
	.byte	$00
	.byte	$00
	.byte	$00
	.byte	$00
	.byte	$00
	.byte	$00
	.byte	$00
	.byte	$00
	.byte	$00
	.byte	$00
	.byte	$00
	.byte	$00
	.byte	$00
	.byte	$00
	.byte	$00
	.byte	$00
	.byte	$00
	.byte	$00
	.byte	$00
	.byte	$00
	.byte	$00
	.byte	$00
	.byte	$00
	.byte	$00
	.byte	$00
	.byte	$00
	.byte	$00
	.byte	$00
	.byte	$00
	.byte	$00
	.byte	$00
	.byte	$00
	.byte	$00
	.byte	$00
	.byte	$00
	.byte	$00
	.byte	$00
	.byte	$00
	.byte	$00
	.byte	$00
	.byte	$00
	.byte	$00
	.byte	$00
	.byte	$00
	.byte	$00
	.byte	$00
	.byte	$00
	.byte	$00
	.byte	$00
	.byte	$00
	.byte	$00
	.byte	$00
	.byte	$00
	.byte	$00
	.byte	$00
	.byte	$00
	.byte	$00
	.byte	$00
	.byte	$00
	.byte	$00
	.byte	$00
	.byte	$00
	.byte	$00
	.byte	$00
	.byte	$00
	.byte	$00
	.byte	$00
	.byte	$00
	.byte	$00
	.byte	$00
	.byte	$00
	.byte	$00
	.byte	$00
	.byte	$00
	.byte	$00
	.byte	$00
	.byte	$00
	.byte	$00
	.byte	$00
	.byte	$00
	.byte	$00
	.byte	$00
	.byte	$00
	.byte	$00
	.byte	$00
	.byte	$00
	.byte	$00
	.byte	$00
	.byte	$00
	.byte	$00
	.byte	$00
	.byte	$00
	.byte	$00
	.byte	$00
	.byte	$00
	.byte	$00
	.byte	$00
	.byte	$00
	.byte	$00
	.byte	$00
	.byte	$00
	.byte	$00
	.byte	$00
	.byte	$00
	.byte	$00
	.byte	$00
	.byte	$00
	.byte	$00
	.byte	$00
	.byte	$00
	.byte	$00
	.byte	$00
	.byte	$00
	.byte	$00
	.byte	$00
	.byte	$00
	.byte	$00
	.byte	$00
	.byte	$00
	.byte	$00
	.byte	$00
	.byte	$00
	.byte	$00
	.byte	$00
	.byte	$00
	.byte	$00
	.byte	$00
	.byte	$00
	.byte	$00
	.byte	$00
	.byte	$00
	.byte	$00
	.byte	$00
	.byte	$00
	.byte	$00
	.byte	$00
	.byte	$00
	.byte	$00
	.byte	$00
	.byte	$00
	.byte	$00
	.byte	$00
	.byte	$00
	.byte	$00
	.byte	$00
	.byte	$00
	.byte	$00
	.byte	$00
	.byte	$00
	.byte	$00
	.byte	$00
	.byte	$00
	.byte	$00
	.byte	$00
	.byte	$00
	.byte	$00
	.byte	$00
	.byte	$00
	.byte	$00
	.byte	$00
	.byte	$00
	.byte	$00
	.byte	$00
	.byte	$00
	.byte	$00
	.byte	$00
	.byte	$00
	.byte	$00
	.byte	$00
	.byte	$00
	.byte	$00
	.byte	$00
	.byte	$00
	.byte	$00
	.byte	$00
	.byte	$00
	.byte	$00
	.byte	$00
	.byte	$00
	.byte	$00
	.byte	$00
	.byte	$00
	.byte	$00
	.byte	$00
	.byte	$00
	.byte	$00
	.byte	$00
	.byte	$00
	.byte	$00
	.byte	$00
	.byte	$00
	.byte	$00
	.byte	$00
	.byte	$00
	.byte	$00
	.byte	$00
	.byte	$00
	.byte	$00
	.byte	$00
	.byte	$00
	.byte	$00
	.byte	$00
	.byte	$00
	.byte	$00
	.byte	$00
	.byte	$00
	.byte	$00
	.byte	$00
	.byte	$00
	.byte	$00
	.byte	$00
	.byte	$00
	.byte	$00
	.byte	$00
	.byte	$00
	.byte	$00
	.byte	$00
	.byte	$00
	.byte	$00
	.byte	$00
	.byte	$00
	.byte	$00
	.byte	$00
	.byte	$00
	.byte	$00
	.byte	$00
	.byte	$00
	.byte	$00
	.byte	$00
	.byte	$00
	.byte	$00
	.byte	$00
	.byte	$00
	.byte	$00
	.byte	$00
	.byte	$00
	.byte	$00
	.byte	$00
	.byte	$00
	.byte	$00
	.byte	$00
	.byte	$00
	.byte	$00
	.byte	$00
	.byte	$00
	.byte	$00
	.byte	$00
	.byte	$00
	.byte	$00
	.byte	$00
	.byte	$00
	.byte	$00
	.byte	$00
	.byte	$00
	.byte	$00
	.byte	$00
	.byte	$00
	.byte	$00
	.byte	$00
	.byte	$00
	.byte	$00
	.byte	$00
	.byte	$00
	.byte	$00
	.byte	$00
	.byte	$00
	.byte	$00
	.byte	$00
	.byte	$00
	.byte	$00
	.byte	$00
	.byte	$00
	.byte	$00
	.byte	$00
	.byte	$00
	.byte	$00
	.byte	$00
	.byte	$00
	.byte	$00
	.byte	$00
	.byte	$00
	.byte	$00
	.byte	$00
	.byte	$00
	.byte	$00
	.byte	$00
	.byte	$00
	.byte	$00
	.byte	$00
	.byte	$00
	.byte	$00
	.byte	$00
	.byte	$00
	.byte	$00
	.byte	$00
	.byte	$00
	.byte	$00
	.byte	$00
	.byte	$00
	.byte	$00
	.byte	$00
	.byte	$00
	.byte	$00
	.byte	$00
	.byte	$00
	.byte	$00
	.byte	$00
	.byte	$00
	.byte	$00
	.byte	$00
	.byte	$00
	.byte	$00
	.byte	$00
	.byte	$00
	.byte	$00
	.byte	$00
	.byte	$00
	.byte	$00
	.byte	$00
	.byte	$00
	.byte	$00
	.byte	$00
	.byte	$00
	.byte	$00
	.byte	$00
	.byte	$00
	.byte	$00
	.byte	$00
	.byte	$00
	.byte	$00
	.byte	$00
	.byte	$00
	.byte	$00
	.byte	$00
	.byte	$00
	.byte	$00
	.byte	$00
	.byte	$00
	.byte	$00
	.byte	$00
	.byte	$00
	.byte	$00
	.byte	$00
	.byte	$00
	.byte	$00
	.byte	$00
	.byte	$00
	.byte	$00
	.byte	$F0
	.byte	$00
	.byte	$00
	.byte	$00
	.byte	$00
	.byte	$00
	.byte	$00
	.byte	$00
	.byte	$00
	.byte	$00
	.byte	$00
	.byte	$00
	.byte	$00
	.byte	$00
	.byte	$00
	.byte	$00
	.byte	$00
	.byte	$00
	.byte	$00
	.byte	$00
	.byte	$00
	.byte	$00
	.byte	$00
	.byte	$00
	.byte	$00
	.byte	$00
	.byte	$00
	.byte	$00
	.byte	$00
	.byte	$00
	.byte	$00
	.byte	$00
	.byte	$F0
	.byte	$00
	.byte	$00
	.byte	$00
	.byte	$00
	.byte	$00
	.byte	$00
	.byte	$00
	.byte	$00
	.byte	$00
	.byte	$00
	.byte	$00
	.byte	$00
	.byte	$00
	.byte	$00
	.byte	$00
	.byte	$00
	.byte	$00
	.byte	$00
	.byte	$00
	.byte	$00
	.byte	$00
	.byte	$00
	.byte	$00
	.byte	$00
	.byte	$00
	.byte	$00
	.byte	$00
	.byte	$00
	.byte	$00
	.byte	$00
	.byte	$00
	.byte	$F0
	.byte	$00
	.byte	$00
	.byte	$00
	.byte	$00
	.byte	$00
	.byte	$00
	.byte	$00
	.byte	$00
	.byte	$00
	.byte	$00
	.byte	$00
	.byte	$00
	.byte	$00
	.byte	$00
	.byte	$00
	.byte	$00
	.byte	$00
	.byte	$00
	.byte	$00
	.byte	$00
	.byte	$00
	.byte	$00
	.byte	$00
	.byte	$00
	.byte	$00
	.byte	$00
	.byte	$00
	.byte	$00
	.byte	$00
	.byte	$00
	.byte	$00
	.byte	$F0
	.byte	$00
	.byte	$00
	.byte	$00
	.byte	$00
	.byte	$00
	.byte	$00
	.byte	$00
	.byte	$00
	.byte	$00
	.byte	$00
	.byte	$00
	.byte	$00
	.byte	$00
	.byte	$00
	.byte	$00
	.byte	$00
	.byte	$00
	.byte	$00
	.byte	$00
	.byte	$00
	.byte	$00
	.byte	$00
	.byte	$00
	.byte	$00
	.byte	$00
	.byte	$00
	.byte	$00
	.byte	$00
	.byte	$00
	.byte	$00
	.byte	$00
	.byte	$F0
	.byte	$00
	.byte	$00
	.byte	$00
	.byte	$00
	.byte	$00
	.byte	$00
	.byte	$00
	.byte	$00
	.byte	$00
	.byte	$00
	.byte	$00
	.byte	$00
	.byte	$00
	.byte	$00
	.byte	$00
	.byte	$00
	.byte	$00
	.byte	$00
	.byte	$00
	.byte	$00
	.byte	$00
	.byte	$00
	.byte	$00
	.byte	$00
	.byte	$00
	.byte	$00
	.byte	$00
	.byte	$00
	.byte	$00
	.byte	$00
	.byte	$00
	.byte	$F0
	.byte	$00
	.byte	$00
	.byte	$00
	.byte	$00
	.byte	$00
	.byte	$00
	.byte	$00
	.byte	$00
	.byte	$00
	.byte	$00
	.byte	$00
	.byte	$00
	.byte	$00
	.byte	$00
	.byte	$00
	.byte	$00
	.byte	$00
	.byte	$00
	.byte	$00
	.byte	$00
	.byte	$00
	.byte	$00
	.byte	$00
	.byte	$00
	.byte	$00
	.byte	$00
	.byte	$00
	.byte	$00
	.byte	$00
	.byte	$00
	.byte	$00
	.byte	$F0
	.byte	$00
	.byte	$00
	.byte	$00
	.byte	$00
	.byte	$00
	.byte	$00
	.byte	$00
	.byte	$00
	.byte	$00
	.byte	$00
	.byte	$00
	.byte	$00
	.byte	$00
	.byte	$00
	.byte	$00
	.byte	$00
	.byte	$00
	.byte	$00
	.byte	$00
	.byte	$00
	.byte	$00
	.byte	$00
	.byte	$00
	.byte	$00
	.byte	$00
	.byte	$00
	.byte	$00
	.byte	$00
	.byte	$00
	.byte	$00
	.byte	$00
	.byte	$F0
	.byte	$00
	.byte	$00
	.byte	$00
	.byte	$00
	.byte	$00
	.byte	$00
	.byte	$00
	.byte	$00
	.byte	$00
	.byte	$00
	.byte	$00
	.byte	$00
	.byte	$00
	.byte	$00
	.byte	$00
	.byte	$00
	.byte	$00
	.byte	$00
	.byte	$00
	.byte	$00
	.byte	$00
	.byte	$00
	.byte	$00
	.byte	$00
	.byte	$00
	.byte	$00
	.byte	$00
	.byte	$00
	.byte	$00
	.byte	$00
	.byte	$00
	.byte	$F0
	.byte	$00
	.byte	$00
	.byte	$00
	.byte	$00
	.byte	$00
	.byte	$00
	.byte	$00
	.byte	$00
	.byte	$00
	.byte	$00
	.byte	$00
	.byte	$00
	.byte	$00
	.byte	$00
	.byte	$00
	.byte	$00
	.byte	$00
	.byte	$00
	.byte	$00
	.byte	$00
	.byte	$00
	.byte	$00
	.byte	$00
	.byte	$00
	.byte	$00
	.byte	$00
	.byte	$00
	.byte	$00
	.byte	$00
	.byte	$00
	.byte	$00
	.byte	$F0
	.byte	$00
	.byte	$00
	.byte	$00
	.byte	$00
	.byte	$00
	.byte	$00
	.byte	$00
	.byte	$00
	.byte	$00
	.byte	$00
	.byte	$00
	.byte	$00
	.byte	$00
	.byte	$00
	.byte	$00
	.byte	$00
	.byte	$00
	.byte	$00
	.byte	$00
	.byte	$00
	.byte	$00
	.byte	$00
	.byte	$00
	.byte	$00
	.byte	$00
	.byte	$00
	.byte	$00
	.byte	$00
	.byte	$00
	.byte	$00
	.byte	$00
	.byte	$00
	.byte	$00
	.byte	$00
	.byte	$00
	.byte	$00
	.byte	$00
	.byte	$00
	.byte	$00
	.byte	$00
	.byte	$00
	.byte	$00
	.byte	$00
	.byte	$00
	.byte	$00
	.byte	$00
	.byte	$00
	.byte	$00
	.byte	$00
	.byte	$00
	.byte	$00
	.byte	$00
	.byte	$00
	.byte	$00
	.byte	$00
	.byte	$00
	.byte	$00
	.byte	$00
	.byte	$00
	.byte	$00
	.byte	$00
	.byte	$AA
	.byte	$AA
	.byte	$AA
	.byte	$AA
	.byte	$AA
	.byte	$AA
	.byte	$AA
	.byte	$AA
	.byte	$AA
	.byte	$AA
	.byte	$AA
	.byte	$AA
	.byte	$AA
	.byte	$AA
	.byte	$AA
	.byte	$AA
	.byte	$AA
	.byte	$AA
	.byte	$AA
	.byte	$AA
	.byte	$AA
	.byte	$AA
	.byte	$AA
	.byte	$AA
	.byte	$AA
	.byte	$AA
	.byte	$AA
	.byte	$AA
	.byte	$AA
	.byte	$AA
	.byte	$AA
	.byte	$AA
	.byte	$AA
	.byte	$AA
	.byte	$AA
	.byte	$AA
	.byte	$AA
	.byte	$A6
	.byte	$A9
	.byte	$AA
	.byte	$AA
	.byte	$AA
	.byte	$AA
	.byte	$AA
	.byte	$AA
	.byte	$AA
	.byte	$AA
	.byte	$AA
	.byte	$AA
	.byte	$AA
	.byte	$AA
	.byte	$AA
	.byte	$AA
	.byte	$AA
	.byte	$AA
	.byte	$AA
	.byte	$0A
	.byte	$0A
	.byte	$0A
	.byte	$0A
	.byte	$0A
	.byte	$06
	.byte	$05
	.byte	$09
_intro_single_page:
	.byte	$00
	.byte	$00
	.byte	$00
	.byte	$00
	.byte	$00
	.byte	$00
	.byte	$00
	.byte	$00
	.byte	$00
	.byte	$00
	.byte	$00
	.byte	$00
	.byte	$00
	.byte	$00
	.byte	$00
	.byte	$00
	.byte	$00
	.byte	$00
	.byte	$00
	.byte	$00
	.byte	$00
	.byte	$00
	.byte	$00
	.byte	$00
	.byte	$00
	.byte	$00
	.byte	$00
	.byte	$00
	.byte	$00
	.byte	$00
	.byte	$00
	.byte	$00
	.byte	$00
	.byte	$04
	.byte	$05
	.byte	$00
	.byte	$00
	.byte	$00
	.byte	$5A
	.byte	$41
	.byte	$52
	.byte	$51
	.byte	$41
	.byte	$4B
	.byte	$27
	.byte	$53
	.byte	$20
	.byte	$43
	.byte	$48
	.byte	$52
	.byte	$4F
	.byte	$4E
	.byte	$49
	.byte	$43
	.byte	$4C
	.byte	$45
	.byte	$53
	.byte	$00
	.byte	$00
	.byte	$00
	.byte	$00
	.byte	$0A
	.byte	$0B
	.byte	$00
	.byte	$00
	.byte	$14
	.byte	$00
	.byte	$00
	.byte	$00
	.byte	$00
	.byte	$00
	.byte	$00
	.byte	$00
	.byte	$00
	.byte	$00
	.byte	$00
	.byte	$00
	.byte	$00
	.byte	$00
	.byte	$00
	.byte	$00
	.byte	$00
	.byte	$00
	.byte	$00
	.byte	$00
	.byte	$00
	.byte	$00
	.byte	$00
	.byte	$00
	.byte	$00
	.byte	$00
	.byte	$00
	.byte	$00
	.byte	$1A
	.byte	$1B
	.byte	$00
	.byte	$00
	.byte	$16
	.byte	$00
	.byte	$41
	.byte	$20
	.byte	$74
	.byte	$68
	.byte	$6F
	.byte	$75
	.byte	$73
	.byte	$61
	.byte	$6E
	.byte	$64
	.byte	$20
	.byte	$79
	.byte	$65
	.byte	$61
	.byte	$72
	.byte	$20
	.byte	$77
	.byte	$61
	.byte	$72
	.byte	$20
	.byte	$68
	.byte	$61
	.byte	$73
	.byte	$20
	.byte	$20
	.byte	$00
	.byte	$00
	.byte	$16
	.byte	$00
	.byte	$00
	.byte	$16
	.byte	$00
	.byte	$20
	.byte	$20
	.byte	$20
	.byte	$20
	.byte	$20
	.byte	$20
	.byte	$20
	.byte	$20
	.byte	$20
	.byte	$20
	.byte	$20
	.byte	$20
	.byte	$20
	.byte	$20
	.byte	$20
	.byte	$20
	.byte	$20
	.byte	$20
	.byte	$20
	.byte	$20
	.byte	$20
	.byte	$20
	.byte	$20
	.byte	$20
	.byte	$20
	.byte	$00
	.byte	$00
	.byte	$16
	.byte	$00
	.byte	$00
	.byte	$16
	.byte	$00
	.byte	$62
	.byte	$65
	.byte	$67
	.byte	$75
	.byte	$6E
	.byte	$20
	.byte	$69
	.byte	$6E
	.byte	$20
	.byte	$74
	.byte	$68
	.byte	$65
	.byte	$20
	.byte	$53
	.byte	$54
	.byte	$41
	.byte	$52
	.byte	$53
	.byte	$2E
	.byte	$20
	.byte	$45
	.byte	$76
	.byte	$69
	.byte	$6C
	.byte	$20
	.byte	$00
	.byte	$00
	.byte	$16
	.byte	$00
	.byte	$00
	.byte	$16
	.byte	$00
	.byte	$20
	.byte	$20
	.byte	$20
	.byte	$20
	.byte	$20
	.byte	$20
	.byte	$20
	.byte	$20
	.byte	$20
	.byte	$20
	.byte	$20
	.byte	$20
	.byte	$20
	.byte	$20
	.byte	$20
	.byte	$20
	.byte	$20
	.byte	$20
	.byte	$20
	.byte	$20
	.byte	$20
	.byte	$20
	.byte	$20
	.byte	$20
	.byte	$20
	.byte	$00
	.byte	$00
	.byte	$16
	.byte	$00
	.byte	$00
	.byte	$16
	.byte	$00
	.byte	$5A
	.byte	$41
	.byte	$52
	.byte	$51
	.byte	$41
	.byte	$4B
	.byte	$20
	.byte	$68
	.byte	$61
	.byte	$73
	.byte	$20
	.byte	$63
	.byte	$6F
	.byte	$6E
	.byte	$74
	.byte	$72
	.byte	$6F
	.byte	$6C
	.byte	$20
	.byte	$6F
	.byte	$66
	.byte	$20
	.byte	$74
	.byte	$68
	.byte	$65
	.byte	$00
	.byte	$00
	.byte	$16
	.byte	$00
	.byte	$00
	.byte	$16
	.byte	$00
	.byte	$20
	.byte	$20
	.byte	$20
	.byte	$20
	.byte	$20
	.byte	$20
	.byte	$20
	.byte	$20
	.byte	$20
	.byte	$20
	.byte	$20
	.byte	$20
	.byte	$20
	.byte	$20
	.byte	$20
	.byte	$20
	.byte	$20
	.byte	$20
	.byte	$20
	.byte	$20
	.byte	$20
	.byte	$20
	.byte	$20
	.byte	$20
	.byte	$20
	.byte	$00
	.byte	$00
	.byte	$16
	.byte	$00
	.byte	$00
	.byte	$16
	.byte	$00
	.byte	$70
	.byte	$6F
	.byte	$77
	.byte	$65
	.byte	$72
	.byte	$66
	.byte	$75
	.byte	$6C
	.byte	$20
	.byte	$42
	.byte	$41
	.byte	$52
	.byte	$54
	.byte	$48
	.byte	$4F
	.byte	$49
	.byte	$20
	.byte	$63
	.byte	$72
	.byte	$79
	.byte	$73
	.byte	$74
	.byte	$61
	.byte	$6C
	.byte	$2E
	.byte	$00
	.byte	$00
	.byte	$16
	.byte	$00
	.byte	$00
	.byte	$16
	.byte	$00
	.byte	$20
	.byte	$20
	.byte	$20
	.byte	$20
	.byte	$20
	.byte	$20
	.byte	$20
	.byte	$20
	.byte	$20
	.byte	$20
	.byte	$20
	.byte	$20
	.byte	$20
	.byte	$20
	.byte	$20
	.byte	$20
	.byte	$20
	.byte	$20
	.byte	$20
	.byte	$20
	.byte	$20
	.byte	$20
	.byte	$20
	.byte	$20
	.byte	$20
	.byte	$00
	.byte	$00
	.byte	$16
	.byte	$00
	.byte	$00
	.byte	$16
	.byte	$00
	.byte	$20
	.byte	$20
	.byte	$20
	.byte	$20
	.byte	$20
	.byte	$20
	.byte	$20
	.byte	$20
	.byte	$20
	.byte	$20
	.byte	$20
	.byte	$20
	.byte	$20
	.byte	$20
	.byte	$20
	.byte	$20
	.byte	$20
	.byte	$20
	.byte	$20
	.byte	$20
	.byte	$20
	.byte	$20
	.byte	$20
	.byte	$20
	.byte	$20
	.byte	$00
	.byte	$00
	.byte	$16
	.byte	$00
	.byte	$00
	.byte	$16
	.byte	$00
	.byte	$4E
	.byte	$6F
	.byte	$77
	.byte	$20
	.byte	$69
	.byte	$73
	.byte	$20
	.byte	$61
	.byte	$20
	.byte	$74
	.byte	$69
	.byte	$6D
	.byte	$65
	.byte	$20
	.byte	$66
	.byte	$6F
	.byte	$72
	.byte	$20
	.byte	$48
	.byte	$45
	.byte	$52
	.byte	$4F
	.byte	$53
	.byte	$2E
	.byte	$20
	.byte	$00
	.byte	$00
	.byte	$16
	.byte	$00
	.byte	$00
	.byte	$16
	.byte	$00
	.byte	$20
	.byte	$20
	.byte	$20
	.byte	$20
	.byte	$20
	.byte	$20
	.byte	$20
	.byte	$20
	.byte	$20
	.byte	$20
	.byte	$20
	.byte	$20
	.byte	$20
	.byte	$20
	.byte	$20
	.byte	$20
	.byte	$20
	.byte	$20
	.byte	$20
	.byte	$20
	.byte	$20
	.byte	$20
	.byte	$20
	.byte	$20
	.byte	$20
	.byte	$00
	.byte	$00
	.byte	$16
	.byte	$00
	.byte	$00
	.byte	$16
	.byte	$00
	.byte	$20
	.byte	$20
	.byte	$20
	.byte	$20
	.byte	$20
	.byte	$20
	.byte	$20
	.byte	$20
	.byte	$20
	.byte	$20
	.byte	$20
	.byte	$20
	.byte	$20
	.byte	$20
	.byte	$20
	.byte	$20
	.byte	$20
	.byte	$20
	.byte	$20
	.byte	$20
	.byte	$20
	.byte	$20
	.byte	$20
	.byte	$20
	.byte	$20
	.byte	$00
	.byte	$00
	.byte	$16
	.byte	$00
	.byte	$00
	.byte	$16
	.byte	$00
	.byte	$42
	.byte	$75
	.byte	$74
	.byte	$20
	.byte	$6E
	.byte	$6F
	.byte	$6E
	.byte	$65
	.byte	$20
	.byte	$6F
	.byte	$66
	.byte	$20
	.byte	$74
	.byte	$68
	.byte	$61
	.byte	$74
	.byte	$20
	.byte	$69
	.byte	$73
	.byte	$20
	.byte	$66
	.byte	$6F
	.byte	$72
	.byte	$20
	.byte	$20
	.byte	$00
	.byte	$00
	.byte	$16
	.byte	$00
	.byte	$00
	.byte	$16
	.byte	$00
	.byte	$20
	.byte	$20
	.byte	$20
	.byte	$20
	.byte	$20
	.byte	$20
	.byte	$20
	.byte	$20
	.byte	$20
	.byte	$20
	.byte	$20
	.byte	$20
	.byte	$20
	.byte	$20
	.byte	$20
	.byte	$20
	.byte	$20
	.byte	$20
	.byte	$20
	.byte	$20
	.byte	$20
	.byte	$20
	.byte	$20
	.byte	$20
	.byte	$20
	.byte	$00
	.byte	$00
	.byte	$16
	.byte	$00
	.byte	$00
	.byte	$16
	.byte	$00
	.byte	$79
	.byte	$6F
	.byte	$75
	.byte	$2E
	.byte	$20
	.byte	$59
	.byte	$6F
	.byte	$75
	.byte	$20
	.byte	$61
	.byte	$72
	.byte	$65
	.byte	$20
	.byte	$61
	.byte	$20
	.byte	$68
	.byte	$75
	.byte	$6D
	.byte	$61
	.byte	$6E
	.byte	$20
	.byte	$6F
	.byte	$66
	.byte	$20
	.byte	$20
	.byte	$00
	.byte	$00
	.byte	$16
	.byte	$00
	.byte	$00
	.byte	$16
	.byte	$00
	.byte	$20
	.byte	$20
	.byte	$20
	.byte	$20
	.byte	$20
	.byte	$20
	.byte	$20
	.byte	$20
	.byte	$20
	.byte	$20
	.byte	$20
	.byte	$20
	.byte	$20
	.byte	$20
	.byte	$20
	.byte	$20
	.byte	$20
	.byte	$20
	.byte	$20
	.byte	$20
	.byte	$20
	.byte	$20
	.byte	$20
	.byte	$20
	.byte	$20
	.byte	$00
	.byte	$00
	.byte	$16
	.byte	$00
	.byte	$00
	.byte	$16
	.byte	$00
	.byte	$65
	.byte	$61
	.byte	$72
	.byte	$74
	.byte	$68
	.byte	$2C
	.byte	$20
	.byte	$79
	.byte	$6F
	.byte	$75
	.byte	$20
	.byte	$6B
	.byte	$6E
	.byte	$6F
	.byte	$77
	.byte	$20
	.byte	$6E
	.byte	$6F
	.byte	$74
	.byte	$68
	.byte	$69
	.byte	$6E
	.byte	$67
	.byte	$20
	.byte	$20
	.byte	$00
	.byte	$00
	.byte	$16
	.byte	$00
	.byte	$00
	.byte	$16
	.byte	$00
	.byte	$20
	.byte	$20
	.byte	$20
	.byte	$20
	.byte	$20
	.byte	$20
	.byte	$20
	.byte	$20
	.byte	$20
	.byte	$20
	.byte	$20
	.byte	$20
	.byte	$20
	.byte	$20
	.byte	$20
	.byte	$20
	.byte	$20
	.byte	$20
	.byte	$20
	.byte	$20
	.byte	$20
	.byte	$20
	.byte	$20
	.byte	$20
	.byte	$20
	.byte	$00
	.byte	$00
	.byte	$16
	.byte	$00
	.byte	$00
	.byte	$16
	.byte	$00
	.byte	$6F
	.byte	$66
	.byte	$20
	.byte	$73
	.byte	$70
	.byte	$61
	.byte	$63
	.byte	$65
	.byte	$20
	.byte	$77
	.byte	$61
	.byte	$72
	.byte	$73
	.byte	$20
	.byte	$61
	.byte	$6E
	.byte	$64
	.byte	$20
	.byte	$68
	.byte	$65
	.byte	$72
	.byte	$6F
	.byte	$73
	.byte	$2E
	.byte	$20
	.byte	$00
	.byte	$00
	.byte	$16
	.byte	$00
	.byte	$00
	.byte	$16
	.byte	$00
	.byte	$20
	.byte	$20
	.byte	$20
	.byte	$20
	.byte	$20
	.byte	$20
	.byte	$20
	.byte	$20
	.byte	$20
	.byte	$20
	.byte	$20
	.byte	$20
	.byte	$20
	.byte	$20
	.byte	$20
	.byte	$20
	.byte	$20
	.byte	$20
	.byte	$20
	.byte	$20
	.byte	$20
	.byte	$20
	.byte	$20
	.byte	$20
	.byte	$20
	.byte	$00
	.byte	$00
	.byte	$16
	.byte	$00
	.byte	$00
	.byte	$16
	.byte	$00
	.byte	$59
	.byte	$6F
	.byte	$75
	.byte	$20
	.byte	$6F
	.byte	$6E
	.byte	$6C
	.byte	$79
	.byte	$20
	.byte	$6B
	.byte	$6E
	.byte	$6F
	.byte	$77
	.byte	$20
	.byte	$6F
	.byte	$6E
	.byte	$65
	.byte	$20
	.byte	$73
	.byte	$6B
	.byte	$69
	.byte	$6C
	.byte	$6C
	.byte	$2E
	.byte	$20
	.byte	$00
	.byte	$00
	.byte	$16
	.byte	$00
	.byte	$00
	.byte	$16
	.byte	$00
	.byte	$20
	.byte	$20
	.byte	$20
	.byte	$20
	.byte	$20
	.byte	$20
	.byte	$20
	.byte	$20
	.byte	$20
	.byte	$20
	.byte	$20
	.byte	$20
	.byte	$20
	.byte	$20
	.byte	$20
	.byte	$20
	.byte	$20
	.byte	$20
	.byte	$20
	.byte	$20
	.byte	$20
	.byte	$20
	.byte	$20
	.byte	$20
	.byte	$20
	.byte	$00
	.byte	$00
	.byte	$16
	.byte	$00
	.byte	$00
	.byte	$16
	.byte	$00
	.byte	$00
	.byte	$00
	.byte	$00
	.byte	$00
	.byte	$00
	.byte	$00
	.byte	$00
	.byte	$00
	.byte	$00
	.byte	$00
	.byte	$00
	.byte	$00
	.byte	$00
	.byte	$00
	.byte	$00
	.byte	$00
	.byte	$00
	.byte	$00
	.byte	$00
	.byte	$00
	.byte	$00
	.byte	$00
	.byte	$00
	.byte	$00
	.byte	$00
	.byte	$00
	.byte	$00
	.byte	$16
	.byte	$00
	.byte	$00
	.byte	$16
	.byte	$00
	.byte	$20
	.byte	$20
	.byte	$20
	.byte	$20
	.byte	$20
	.byte	$20
	.byte	$50
	.byte	$75
	.byte	$6D
	.byte	$70
	.byte	$69
	.byte	$6E
	.byte	$67
	.byte	$20
	.byte	$67
	.byte	$61
	.byte	$73
	.byte	$2E
	.byte	$20
	.byte	$20
	.byte	$20
	.byte	$20
	.byte	$20
	.byte	$20
	.byte	$20
	.byte	$00
	.byte	$00
	.byte	$16
	.byte	$00
	.byte	$00
	.byte	$16
	.byte	$00
	.byte	$00
	.byte	$00
	.byte	$00
	.byte	$00
	.byte	$00
	.byte	$00
	.byte	$00
	.byte	$00
	.byte	$00
	.byte	$00
	.byte	$00
	.byte	$00
	.byte	$00
	.byte	$00
	.byte	$00
	.byte	$00
	.byte	$00
	.byte	$00
	.byte	$00
	.byte	$00
	.byte	$00
	.byte	$00
	.byte	$00
	.byte	$00
	.byte	$00
	.byte	$00
	.byte	$00
	.byte	$16
	.byte	$00
	.byte	$00
	.byte	$07
	.byte	$17
	.byte	$17
	.byte	$17
	.byte	$17
	.byte	$17
	.byte	$17
	.byte	$17
	.byte	$17
	.byte	$17
	.byte	$17
	.byte	$17
	.byte	$17
	.byte	$17
	.byte	$17
	.byte	$17
	.byte	$17
	.byte	$17
	.byte	$17
	.byte	$17
	.byte	$17
	.byte	$17
	.byte	$17
	.byte	$17
	.byte	$17
	.byte	$17
	.byte	$17
	.byte	$17
	.byte	$17
	.byte	$19
	.byte	$00
	.byte	$00
	.byte	$00
	.byte	$00
	.byte	$00
	.byte	$00
	.byte	$00
	.byte	$00
	.byte	$00
	.byte	$00
	.byte	$00
	.byte	$00
	.byte	$00
	.byte	$00
	.byte	$00
	.byte	$00
	.byte	$00
	.byte	$00
	.byte	$00
	.byte	$00
	.byte	$00
	.byte	$00
	.byte	$00
	.byte	$00
	.byte	$00
	.byte	$00
	.byte	$00
	.byte	$00
	.byte	$00
	.byte	$00
	.byte	$00
	.byte	$00
	.byte	$00
	.byte	$AA
	.byte	$AA
	.byte	$AA
	.byte	$AA
	.byte	$AA
	.byte	$AA
	.byte	$AA
	.byte	$AA
	.byte	$AA
	.byte	$AA
	.byte	$AA
	.byte	$AA
	.byte	$AA
	.byte	$AA
	.byte	$AA
	.byte	$AA
	.byte	$AA
	.byte	$AA
	.byte	$AA
	.byte	$AA
	.byte	$AA
	.byte	$AA
	.byte	$AA
	.byte	$AA
	.byte	$AA
	.byte	$AA
	.byte	$AA
	.byte	$AA
	.byte	$AA
	.byte	$AA
	.byte	$AA
	.byte	$AA
	.byte	$AA
	.byte	$AA
	.byte	$AA
	.byte	$AA
	.byte	$AA
	.byte	$A6
	.byte	$A9
	.byte	$AA
	.byte	$AA
	.byte	$AA
	.byte	$AA
	.byte	$AA
	.byte	$AA
	.byte	$AA
	.byte	$AA
	.byte	$AA
	.byte	$AA
	.byte	$AA
	.byte	$AA
	.byte	$AA
	.byte	$AA
	.byte	$AA
	.byte	$AA
	.byte	$AA
	.byte	$0A
	.byte	$0A
	.byte	$0A
	.byte	$0A
	.byte	$0A
	.byte	$06
	.byte	$05
	.byte	$09
_cutscenegun_small_arrow:
	.byte	$00
	.byte	$00
	.byte	$00
	.byte	$00
	.byte	$00
	.byte	$00
	.byte	$00
	.byte	$00
	.byte	$00
	.byte	$00
	.byte	$00
	.byte	$00
	.byte	$00
	.byte	$00
	.byte	$00
	.byte	$00
	.byte	$00
	.byte	$00
	.byte	$00
	.byte	$00
	.byte	$00
	.byte	$00
	.byte	$00
	.byte	$00
	.byte	$00
	.byte	$00
	.byte	$00
	.byte	$00
	.byte	$00
	.byte	$00
	.byte	$00
	.byte	$00
	.byte	$00
	.byte	$00
	.byte	$00
	.byte	$00
	.byte	$00
	.byte	$00
	.byte	$00
	.byte	$00
	.byte	$00
	.byte	$00
	.byte	$00
	.byte	$00
	.byte	$00
	.byte	$00
	.byte	$00
	.byte	$00
	.byte	$00
	.byte	$00
	.byte	$00
	.byte	$00
	.byte	$00
	.byte	$00
	.byte	$00
	.byte	$00
	.byte	$00
	.byte	$00
	.byte	$00
	.byte	$00
	.byte	$00
	.byte	$00
	.byte	$00
	.byte	$00
	.byte	$00
	.byte	$00
	.byte	$00
	.byte	$00
	.byte	$00
	.byte	$00
	.byte	$00
	.byte	$00
	.byte	$00
	.byte	$00
	.byte	$00
	.byte	$00
	.byte	$00
	.byte	$00
	.byte	$00
	.byte	$00
	.byte	$00
	.byte	$00
	.byte	$00
	.byte	$00
	.byte	$00
	.byte	$00
	.byte	$00
	.byte	$00
	.byte	$00
	.byte	$00
	.byte	$00
	.byte	$00
	.byte	$00
	.byte	$00
	.byte	$00
	.byte	$00
	.byte	$00
	.byte	$00
	.byte	$00
	.byte	$00
	.byte	$00
	.byte	$00
	.byte	$00
	.byte	$00
	.byte	$00
	.byte	$00
	.byte	$00
	.byte	$00
	.byte	$00
	.byte	$00
	.byte	$00
	.byte	$00
	.byte	$00
	.byte	$00
	.byte	$00
	.byte	$00
	.byte	$00
	.byte	$00
	.byte	$00
	.byte	$00
	.byte	$00
	.byte	$00
	.byte	$00
	.byte	$00
	.byte	$00
	.byte	$00
	.byte	$00
	.byte	$00
	.byte	$00
	.byte	$00
	.byte	$86
	.byte	$80
	.byte	$85
	.byte	$00
	.byte	$00
	.byte	$00
	.byte	$00
	.byte	$00
	.byte	$00
	.byte	$00
	.byte	$00
	.byte	$00
	.byte	$00
	.byte	$00
	.byte	$00
	.byte	$00
	.byte	$00
	.byte	$00
	.byte	$00
	.byte	$00
	.byte	$00
	.byte	$00
	.byte	$00
	.byte	$00
	.byte	$86
	.byte	$92
	.byte	$00
	.byte	$00
	.byte	$00
	.byte	$00
	.byte	$00
	.byte	$C0
	.byte	$B0
	.byte	$B0
	.byte	$B0
	.byte	$B0
	.byte	$B0
	.byte	$B0
	.byte	$B0
	.byte	$B0
	.byte	$B0
	.byte	$B0
	.byte	$B0
	.byte	$B0
	.byte	$B0
	.byte	$B0
	.byte	$B0
	.byte	$B0
	.byte	$01
	.byte	$F1
	.byte	$F0
	.byte	$F0
	.byte	$F0
	.byte	$F2
	.byte	$91
	.byte	$01
	.byte	$B0
	.byte	$B0
	.byte	$B0
	.byte	$92
	.byte	$00
	.byte	$00
	.byte	$00
	.byte	$D0
	.byte	$03
	.byte	$03
	.byte	$03
	.byte	$03
	.byte	$03
	.byte	$03
	.byte	$03
	.byte	$03
	.byte	$03
	.byte	$03
	.byte	$03
	.byte	$03
	.byte	$03
	.byte	$03
	.byte	$03
	.byte	$03
	.byte	$F1
	.byte	$F0
	.byte	$F0
	.byte	$F0
	.byte	$F2
	.byte	$F4
	.byte	$E1
	.byte	$E1
	.byte	$E1
	.byte	$E1
	.byte	$E1
	.byte	$E2
	.byte	$92
	.byte	$00
	.byte	$00
	.byte	$00
	.byte	$F5
	.byte	$A0
	.byte	$B0
	.byte	$B0
	.byte	$B0
	.byte	$B0
	.byte	$B0
	.byte	$B0
	.byte	$B0
	.byte	$D3
	.byte	$E1
	.byte	$E1
	.byte	$E1
	.byte	$E1
	.byte	$E1
	.byte	$E1
	.byte	$03
	.byte	$03
	.byte	$03
	.byte	$03
	.byte	$03
	.byte	$E0
	.byte	$01
	.byte	$04
	.byte	$05
	.byte	$06
	.byte	$07
	.byte	$08
	.byte	$A2
	.byte	$00
	.byte	$00
	.byte	$00
	.byte	$00
	.byte	$00
	.byte	$00
	.byte	$00
	.byte	$00
	.byte	$00
	.byte	$00
	.byte	$00
	.byte	$C4
	.byte	$E0
	.byte	$03
	.byte	$03
	.byte	$03
	.byte	$03
	.byte	$03
	.byte	$03
	.byte	$01
	.byte	$01
	.byte	$01
	.byte	$01
	.byte	$01
	.byte	$01
	.byte	$01
	.byte	$01
	.byte	$15
	.byte	$16
	.byte	$03
	.byte	$E4
	.byte	$C1
	.byte	$00
	.byte	$00
	.byte	$00
	.byte	$00
	.byte	$00
	.byte	$00
	.byte	$00
	.byte	$00
	.byte	$00
	.byte	$00
	.byte	$00
	.byte	$C3
	.byte	$EC
	.byte	$ED
	.byte	$DC
	.byte	$DD
	.byte	$DE
	.byte	$B3
	.byte	$B3
	.byte	$90
	.byte	$81
	.byte	$81
	.byte	$81
	.byte	$81
	.byte	$81
	.byte	$81
	.byte	$8E
	.byte	$8F
	.byte	$00
	.byte	$00
	.byte	$00
	.byte	$00
	.byte	$00
	.byte	$00
	.byte	$00
	.byte	$00
	.byte	$00
	.byte	$00
	.byte	$00
	.byte	$00
	.byte	$00
	.byte	$00
	.byte	$00
	.byte	$00
	.byte	$00
	.byte	$00
	.byte	$00
	.byte	$00
	.byte	$00
	.byte	$09
	.byte	$E8
	.byte	$83
	.byte	$03
	.byte	$03
	.byte	$03
	.byte	$03
	.byte	$03
	.byte	$03
	.byte	$9E
	.byte	$00
	.byte	$00
	.byte	$00
	.byte	$00
	.byte	$00
	.byte	$00
	.byte	$00
	.byte	$00
	.byte	$00
	.byte	$00
	.byte	$00
	.byte	$00
	.byte	$00
	.byte	$00
	.byte	$00
	.byte	$00
	.byte	$00
	.byte	$00
	.byte	$00
	.byte	$00
	.byte	$00
	.byte	$00
	.byte	$19
	.byte	$F8
	.byte	$93
	.byte	$03
	.byte	$03
	.byte	$03
	.byte	$03
	.byte	$03
	.byte	$B2
	.byte	$D2
	.byte	$00
	.byte	$00
	.byte	$00
	.byte	$00
	.byte	$00
	.byte	$00
	.byte	$00
	.byte	$00
	.byte	$00
	.byte	$00
	.byte	$00
	.byte	$00
	.byte	$00
	.byte	$00
	.byte	$00
	.byte	$00
	.byte	$00
	.byte	$00
	.byte	$00
	.byte	$00
	.byte	$00
	.byte	$00
	.byte	$1A
	.byte	$1B
	.byte	$A3
	.byte	$A4
	.byte	$A7
	.byte	$88
	.byte	$9A
	.byte	$03
	.byte	$A1
	.byte	$85
	.byte	$00
	.byte	$00
	.byte	$00
	.byte	$00
	.byte	$00
	.byte	$00
	.byte	$00
	.byte	$00
	.byte	$00
	.byte	$00
	.byte	$00
	.byte	$00
	.byte	$00
	.byte	$00
	.byte	$00
	.byte	$00
	.byte	$00
	.byte	$00
	.byte	$00
	.byte	$00
	.byte	$00
	.byte	$00
	.byte	$00
	.byte	$00
	.byte	$00
	.byte	$B4
	.byte	$87
	.byte	$88
	.byte	$88
	.byte	$9A
	.byte	$03
	.byte	$F7
	.byte	$B1
	.byte	$00
	.byte	$00
	.byte	$00
	.byte	$00
	.byte	$00
	.byte	$00
	.byte	$00
	.byte	$00
	.byte	$00
	.byte	$00
	.byte	$00
	.byte	$00
	.byte	$00
	.byte	$0C
	.byte	$02
	.byte	$02
	.byte	$02
	.byte	$02
	.byte	$02
	.byte	$02
	.byte	$00
	.byte	$00
	.byte	$00
	.byte	$00
	.byte	$C4
	.byte	$B7
	.byte	$88
	.byte	$97
	.byte	$88
	.byte	$89
	.byte	$A1
	.byte	$98
	.byte	$00
	.byte	$00
	.byte	$00
	.byte	$00
	.byte	$00
	.byte	$00
	.byte	$00
	.byte	$00
	.byte	$00
	.byte	$00
	.byte	$00
	.byte	$00
	.byte	$00
	.byte	$00
	.byte	$0C
	.byte	$02
	.byte	$02
	.byte	$02
	.byte	$02
	.byte	$02
	.byte	$00
	.byte	$00
	.byte	$00
	.byte	$00
	.byte	$D4
	.byte	$D5
	.byte	$A7
	.byte	$88
	.byte	$88
	.byte	$88
	.byte	$89
	.byte	$A8
	.byte	$A9
	.byte	$00
	.byte	$00
	.byte	$00
	.byte	$00
	.byte	$00
	.byte	$00
	.byte	$00
	.byte	$00
	.byte	$00
	.byte	$00
	.byte	$00
	.byte	$00
	.byte	$00
	.byte	$0D
	.byte	$02
	.byte	$02
	.byte	$02
	.byte	$02
	.byte	$02
	.byte	$00
	.byte	$00
	.byte	$00
	.byte	$00
	.byte	$00
	.byte	$E5
	.byte	$87
	.byte	$88
	.byte	$88
	.byte	$88
	.byte	$88
	.byte	$89
	.byte	$B9
	.byte	$B1
	.byte	$00
	.byte	$00
	.byte	$00
	.byte	$00
	.byte	$00
	.byte	$00
	.byte	$00
	.byte	$00
	.byte	$00
	.byte	$00
	.byte	$00
	.byte	$0D
	.byte	$02
	.byte	$02
	.byte	$02
	.byte	$02
	.byte	$02
	.byte	$02
	.byte	$00
	.byte	$00
	.byte	$00
	.byte	$00
	.byte	$00
	.byte	$F5
	.byte	$C7
	.byte	$88
	.byte	$88
	.byte	$88
	.byte	$88
	.byte	$88
	.byte	$AA
	.byte	$CA
	.byte	$00
	.byte	$00
	.byte	$00
	.byte	$00
	.byte	$00
	.byte	$00
	.byte	$00
	.byte	$00
	.byte	$00
	.byte	$00
	.byte	$0D
	.byte	$02
	.byte	$02
	.byte	$02
	.byte	$02
	.byte	$02
	.byte	$02
	.byte	$02
	.byte	$00
	.byte	$00
	.byte	$00
	.byte	$00
	.byte	$00
	.byte	$00
	.byte	$83
	.byte	$A7
	.byte	$88
	.byte	$88
	.byte	$88
	.byte	$88
	.byte	$9A
	.byte	$DA
	.byte	$82
	.byte	$00
	.byte	$00
	.byte	$00
	.byte	$00
	.byte	$00
	.byte	$00
	.byte	$00
	.byte	$00
	.byte	$0D
	.byte	$02
	.byte	$02
	.byte	$02
	.byte	$02
	.byte	$02
	.byte	$1D
	.byte	$0C
	.byte	$02
	.byte	$00
	.byte	$00
	.byte	$00
	.byte	$00
	.byte	$00
	.byte	$00
	.byte	$93
	.byte	$87
	.byte	$88
	.byte	$88
	.byte	$97
	.byte	$88
	.byte	$88
	.byte	$AA
	.byte	$EB
	.byte	$00
	.byte	$00
	.byte	$00
	.byte	$00
	.byte	$00
	.byte	$00
	.byte	$00
	.byte	$00
	.byte	$0C
	.byte	$02
	.byte	$02
	.byte	$02
	.byte	$02
	.byte	$1D
	.byte	$00
	.byte	$00
	.byte	$0C
	.byte	$00
	.byte	$00
	.byte	$00
	.byte	$00
	.byte	$00
	.byte	$00
	.byte	$0E
	.byte	$0F
	.byte	$A7
	.byte	$88
	.byte	$88
	.byte	$88
	.byte	$88
	.byte	$89
	.byte	$FB
	.byte	$00
	.byte	$00
	.byte	$00
	.byte	$00
	.byte	$00
	.byte	$00
	.byte	$00
	.byte	$00
	.byte	$00
	.byte	$0C
	.byte	$02
	.byte	$02
	.byte	$1D
	.byte	$00
	.byte	$00
	.byte	$00
	.byte	$00
	.byte	$00
	.byte	$00
	.byte	$00
	.byte	$00
	.byte	$00
	.byte	$00
	.byte	$1E
	.byte	$1F
	.byte	$B7
	.byte	$88
	.byte	$88
	.byte	$88
	.byte	$89
	.byte	$E4
	.byte	$C1
	.byte	$00
	.byte	$00
	.byte	$00
	.byte	$00
	.byte	$00
	.byte	$00
	.byte	$00
	.byte	$00
	.byte	$00
	.byte	$00
	.byte	$0C
	.byte	$1D
	.byte	$00
	.byte	$00
	.byte	$00
	.byte	$00
	.byte	$00
	.byte	$00
	.byte	$00
	.byte	$00
	.byte	$00
	.byte	$00
	.byte	$00
	.byte	$C3
	.byte	$D1
	.byte	$D1
	.byte	$D1
	.byte	$D1
	.byte	$D1
	.byte	$D1
	.byte	$C2
	.byte	$00
	.byte	$00
	.byte	$00
	.byte	$00
	.byte	$00
	.byte	$00
	.byte	$00
	.byte	$00
	.byte	$00
	.byte	$00
	.byte	$00
	.byte	$00
	.byte	$00
	.byte	$00
	.byte	$00
	.byte	$00
	.byte	$00
	.byte	$00
	.byte	$00
	.byte	$00
	.byte	$00
	.byte	$00
	.byte	$00
	.byte	$00
	.byte	$00
	.byte	$00
	.byte	$00
	.byte	$00
	.byte	$00
	.byte	$00
	.byte	$00
	.byte	$00
	.byte	$00
	.byte	$00
	.byte	$00
	.byte	$00
	.byte	$00
	.byte	$00
	.byte	$53
	.byte	$71
	.byte	$75
	.byte	$65
	.byte	$65
	.byte	$7A
	.byte	$65
	.byte	$00
	.byte	$74
	.byte	$68
	.byte	$65
	.byte	$00
	.byte	$74
	.byte	$68
	.byte	$65
	.byte	$00
	.byte	$74
	.byte	$72
	.byte	$69
	.byte	$67
	.byte	$67
	.byte	$65
	.byte	$72
	.byte	$2C
	.byte	$00
	.byte	$00
	.byte	$00
	.byte	$00
	.byte	$00
	.byte	$00
	.byte	$00
	.byte	$00
	.byte	$00
	.byte	$00
	.byte	$00
	.byte	$00
	.byte	$00
	.byte	$00
	.byte	$00
	.byte	$00
	.byte	$00
	.byte	$00
	.byte	$00
	.byte	$00
	.byte	$00
	.byte	$00
	.byte	$00
	.byte	$00
	.byte	$00
	.byte	$00
	.byte	$00
	.byte	$00
	.byte	$00
	.byte	$00
	.byte	$00
	.byte	$00
	.byte	$00
	.byte	$00
	.byte	$00
	.byte	$00
	.byte	$00
	.byte	$00
	.byte	$00
	.byte	$00
	.byte	$00
	.byte	$00
	.byte	$00
	.byte	$62
	.byte	$75
	.byte	$74
	.byte	$00
	.byte	$64
	.byte	$6F
	.byte	$6E
	.byte	$27
	.byte	$74
	.byte	$00
	.byte	$6C
	.byte	$65
	.byte	$74
	.byte	$00
	.byte	$69
	.byte	$74
	.byte	$00
	.byte	$63
	.byte	$6C
	.byte	$69
	.byte	$63
	.byte	$6B
	.byte	$2E
	.byte	$00
	.byte	$00
	.byte	$00
	.byte	$00
	.byte	$00
	.byte	$00
	.byte	$00
	.byte	$00
	.byte	$00
	.byte	$8D
	.byte	$8D
	.byte	$8D
	.byte	$8D
	.byte	$8D
	.byte	$8D
	.byte	$8D
	.byte	$8D
	.byte	$8D
	.byte	$8D
	.byte	$8D
	.byte	$8D
	.byte	$8D
	.byte	$8D
	.byte	$8D
	.byte	$8D
	.byte	$8D
	.byte	$8D
	.byte	$8D
	.byte	$8D
	.byte	$8D
	.byte	$8D
	.byte	$00
	.byte	$00
	.byte	$00
	.byte	$00
	.byte	$00
	.byte	$00
	.byte	$00
	.byte	$00
	.byte	$00
	.byte	$00
	.byte	$00
	.byte	$00
	.byte	$00
	.byte	$00
	.byte	$00
	.byte	$00
	.byte	$00
	.byte	$00
	.byte	$00
	.byte	$00
	.byte	$00
	.byte	$00
	.byte	$00
	.byte	$00
	.byte	$00
	.byte	$00
	.byte	$00
	.byte	$00
	.byte	$00
	.byte	$94
	.byte	$00
	.byte	$00
	.byte	$00
	.byte	$00
	.byte	$00
	.byte	$00
	.byte	$00
	.byte	$00
	.byte	$00
	.byte	$00
	.byte	$00
	.byte	$00
	.byte	$00
	.byte	$00
	.byte	$00
	.byte	$00
	.byte	$00
	.byte	$00
	.byte	$00
	.byte	$00
	.byte	$00
	.byte	$00
	.byte	$00
	.byte	$00
	.byte	$00
	.byte	$00
	.byte	$00
	.byte	$00
	.byte	$00
	.byte	$00
	.byte	$00
	.byte	$00
	.byte	$00
	.byte	$00
	.byte	$00
	.byte	$00
	.byte	$00
	.byte	$00
	.byte	$80
	.byte	$A0
	.byte	$A0
	.byte	$A0
	.byte	$A0
	.byte	$A0
	.byte	$A0
	.byte	$88
	.byte	$55
	.byte	$55
	.byte	$55
	.byte	$55
	.byte	$DD
	.byte	$FF
	.byte	$57
	.byte	$D1
	.byte	$55
	.byte	$55
	.byte	$5D
	.byte	$5F
	.byte	$57
	.byte	$55
	.byte	$55
	.byte	$DF
	.byte	$04
	.byte	$00
	.byte	$0C
	.byte	$0F
	.byte	$55
	.byte	$55
	.byte	$55
	.byte	$0F
	.byte	$03
	.byte	$00
	.byte	$00
	.byte	$00
	.byte	$45
	.byte	$55
	.byte	$55
	.byte	$11
	.byte	$00
	.byte	$00
	.byte	$00
	.byte	$00
	.byte	$00
	.byte	$55
	.byte	$55
	.byte	$11
	.byte	$08
	.byte	$AA
	.byte	$AA
	.byte	$AA
	.byte	$AA
	.byte	$AA
	.byte	$AA
	.byte	$A1
	.byte	$00
	.byte	$0A
	.byte	$0A
	.byte	$0A
	.byte	$0A
	.byte	$0A
	.byte	$0A
	.byte	$02
.segment	"BANK1"
_level_0_text:
	.byte	$53,$6F,$20,$79,$6F,$75,$20,$77,$61,$6E,$6E,$61,$20,$70,$75,$6D
	.byte	$70,$20,$67,$61,$73,$20,$3F,$21,$3F,$0A,$47,$69,$76,$65,$20,$6D
	.byte	$65,$20,$31,$20,$67,$61,$6C,$6C,$6F,$6E,$73,$0A,$20,$4A,$75,$73
	.byte	$74,$20,$70,$75,$6C,$6C,$20,$74,$68,$65,$20,$74,$72,$69,$67,$67
	.byte	$65,$72,$0A,$42,$75,$74,$20,$64,$6F,$6E,$27,$74,$20,$63,$6C,$69
	.byte	$63,$6B,$20,$69,$74,$2E,$00
_level_1_text:
	.byte	$59,$6F,$75,$27,$72,$65,$20,$73,$74,$61,$72,$74,$69,$6E,$67,$20
	.byte	$74,$6F,$20,$62,$65,$6C,$69,$65,$76,$65,$0A,$62,$75,$74,$20,$79
	.byte	$6F,$75,$20,$68,$61,$76,$65,$20,$6D,$75,$63,$68,$20,$74,$6F,$20
	.byte	$6C,$65,$61,$72,$6E,$2E,$0A,$0A,$4E,$6F,$77,$20,$67,$69,$76,$65
	.byte	$20,$6D,$65,$20,$31,$20,$67,$61,$6C,$6C,$6F,$6E,$73,$21,$0A,$61
	.byte	$6E,$64,$20,$6D,$61,$6B,$65,$20,$69,$74,$20,$71,$75,$69,$63,$6B
	.byte	$21,$21,$21,$00
_level_2_text:
	.byte	$49,$20,$63,$61,$6E,$27,$74,$20,$64,$65,$6E,$79,$20,$69,$74,$2E
	.byte	$2E,$2E,$0A,$59,$6F,$75,$20,$77,$65,$72,$65,$20,$62,$6F,$72,$6E
	.byte	$20,$74,$6F,$20,$64,$6F,$20,$74,$68,$69,$73,$2E,$0A,$4F,$6E,$65
	.byte	$20,$6C,$61,$73,$74,$20,$74,$65,$73,$74,$2E,$2E,$2E,$0A,$43,$61
	.byte	$6E,$20,$79,$6F,$75,$20,$64,$6F,$20,$31,$20,$67,$61,$6C,$6C,$6F
	.byte	$6E,$73,$3F,$0A,$0A,$49,$27,$6D,$20,$77,$61,$74,$63,$68,$69,$6E
	.byte	$67,$20,$63,$6C,$6F,$73,$65,$6C,$79,$2E,$2E,$2E,$00
_title_screen_rle:
	.byte	$02
	.byte	$12
	.byte	$05
	.byte	$04
	.byte	$04
	.byte	$11
	.byte	$04
	.byte	$05
	.byte	$04
	.byte	$04
	.byte	$11
	.byte	$05
	.byte	$04
	.byte	$02
	.byte	$02
	.byte	$07
	.byte	$00
	.byte	$E0
	.byte	$F2
	.byte	$E0
	.byte	$E0
	.byte	$F1
	.byte	$E0
	.byte	$00
	.byte	$08
	.byte	$04
	.byte	$04
	.byte	$11
	.byte	$04
	.byte	$02
	.byte	$02
	.byte	$11
	.byte	$04
	.byte	$02
	.byte	$03
	.byte	$05
	.byte	$04
	.byte	$02
	.byte	$08
	.byte	$07
	.byte	$00
	.byte	$00
	.byte	$E0
	.byte	$F1
	.byte	$F2
	.byte	$F1
	.byte	$E0
	.byte	$E0
	.byte	$08
	.byte	$04
	.byte	$05
	.byte	$04
	.byte	$02
	.byte	$02
	.byte	$05
	.byte	$04
	.byte	$02
	.byte	$03
	.byte	$11
	.byte	$0E
	.byte	$0F
	.byte	$04
	.byte	$0E
	.byte	$0F
	.byte	$04
	.byte	$0E
	.byte	$0F
	.byte	$04
	.byte	$12
	.byte	$07
	.byte	$00
	.byte	$F2
	.byte	$00
	.byte	$F1
	.byte	$E0
	.byte	$02
	.byte	$02
	.byte	$00
	.byte	$17
	.byte	$11
	.byte	$05
	.byte	$0E
	.byte	$0F
	.byte	$05
	.byte	$0E
	.byte	$0F
	.byte	$04
	.byte	$0E
	.byte	$0F
	.byte	$05
	.byte	$05
	.byte	$1E
	.byte	$1F
	.byte	$04
	.byte	$1E
	.byte	$1F
	.byte	$11
	.byte	$1E
	.byte	$1F
	.byte	$04
	.byte	$07
	.byte	$00
	.byte	$00
	.byte	$E0
	.byte	$00
	.byte	$02
	.byte	$02
	.byte	$E0
	.byte	$F1
	.byte	$00
	.byte	$16
	.byte	$05
	.byte	$04
	.byte	$1E
	.byte	$1F
	.byte	$04
	.byte	$1E
	.byte	$1F
	.byte	$04
	.byte	$1E
	.byte	$1F
	.byte	$07
	.byte	$15
	.byte	$14
	.byte	$15
	.byte	$02
	.byte	$06
	.byte	$00
	.byte	$00
	.byte	$E0
	.byte	$00
	.byte	$02
	.byte	$08
	.byte	$15
	.byte	$14
	.byte	$14
	.byte	$15
	.byte	$14
	.byte	$0D
	.byte	$15
	.byte	$02
	.byte	$03
	.byte	$00
	.byte	$02
	.byte	$1F
	.byte	$E0
	.byte	$00
	.byte	$02
	.byte	$1D
	.byte	$E0
	.byte	$00
	.byte	$02
	.byte	$02
	.byte	$0B
	.byte	$00
	.byte	$02
	.byte	$02
	.byte	$0B
	.byte	$00
	.byte	$02
	.byte	$02
	.byte	$0B
	.byte	$00
	.byte	$02
	.byte	$02
	.byte	$0B
	.byte	$00
	.byte	$02
	.byte	$02
	.byte	$0B
	.byte	$00
	.byte	$83
	.byte	$84
	.byte	$85
	.byte	$86
	.byte	$87
	.byte	$00
	.byte	$0B
	.byte	$00
	.byte	$02
	.byte	$02
	.byte	$0B
	.byte	$00
	.byte	$02
	.byte	$13
	.byte	$92
	.byte	$93
	.byte	$94
	.byte	$95
	.byte	$96
	.byte	$97
	.byte	$98
	.byte	$00
	.byte	$02
	.byte	$18
	.byte	$A2
	.byte	$A3
	.byte	$A4
	.byte	$A5
	.byte	$A6
	.byte	$A7
	.byte	$A8
	.byte	$00
	.byte	$02
	.byte	$18
	.byte	$B2
	.byte	$B3
	.byte	$B4
	.byte	$B5
	.byte	$B6
	.byte	$B7
	.byte	$B8
	.byte	$00
	.byte	$02
	.byte	$06
	.byte	$08
	.byte	$09
	.byte	$18
	.byte	$18
	.byte	$19
	.byte	$18
	.byte	$19
	.byte	$19
	.byte	$18
	.byte	$18
	.byte	$19
	.byte	$18
	.byte	$02
	.byte	$02
	.byte	$09
	.byte	$00
	.byte	$02
	.byte	$03
	.byte	$C3
	.byte	$C4
	.byte	$C5
	.byte	$C6
	.byte	$C7
	.byte	$00
	.byte	$08
	.byte	$18
	.byte	$19
	.byte	$08
	.byte	$18
	.byte	$00
	.byte	$00
	.byte	$1D
	.byte	$04
	.byte	$11
	.byte	$04
	.byte	$05
	.byte	$05
	.byte	$04
	.byte	$04
	.byte	$05
	.byte	$04
	.byte	$05
	.byte	$02
	.byte	$02
	.byte	$11
	.byte	$04
	.byte	$1C
	.byte	$0A
	.byte	$00
	.byte	$02
	.byte	$03
	.byte	$D5
	.byte	$00
	.byte	$02
	.byte	$02
	.byte	$1D
	.byte	$04
	.byte	$04
	.byte	$11
	.byte	$05
	.byte	$00
	.byte	$E3
	.byte	$00
	.byte	$1D
	.byte	$05
	.byte	$04
	.byte	$05
	.byte	$11
	.byte	$04
	.byte	$05
	.byte	$04
	.byte	$11
	.byte	$05
	.byte	$04
	.byte	$12
	.byte	$05
	.byte	$04
	.byte	$11
	.byte	$1C
	.byte	$00
	.byte	$02
	.byte	$03
	.byte	$D5
	.byte	$00
	.byte	$F1
	.byte	$00
	.byte	$00
	.byte	$1D
	.byte	$05
	.byte	$05
	.byte	$04
	.byte	$00
	.byte	$00
	.byte	$F1
	.byte	$00
	.byte	$15
	.byte	$14
	.byte	$14
	.byte	$15
	.byte	$14
	.byte	$14
	.byte	$15
	.byte	$14
	.byte	$15
	.byte	$14
	.byte	$15
	.byte	$02
	.byte	$02
	.byte	$14
	.byte	$0D
	.byte	$00
	.byte	$02
	.byte	$03
	.byte	$D5
	.byte	$00
	.byte	$02
	.byte	$1E
	.byte	$D5
	.byte	$00
	.byte	$A9
	.byte	$9C
	.byte	$01
	.byte	$02
	.byte	$04
	.byte	$00
	.byte	$02
	.byte	$07
	.byte	$80
	.byte	$81
	.byte	$00
	.byte	$02
	.byte	$03
	.byte	$80
	.byte	$81
	.byte	$00
	.byte	$02
	.byte	$02
	.byte	$E0
	.byte	$00
	.byte	$02
	.byte	$02
	.byte	$D5
	.byte	$00
	.byte	$A9
	.byte	$01
	.byte	$9C
	.byte	$01
	.byte	$02
	.byte	$03
	.byte	$00
	.byte	$02
	.byte	$04
	.byte	$D2
	.byte	$D0
	.byte	$D0
	.byte	$90
	.byte	$91
	.byte	$D0
	.byte	$02
	.byte	$03
	.byte	$90
	.byte	$91
	.byte	$D0
	.byte	$E0
	.byte	$00
	.byte	$02
	.byte	$04
	.byte	$D5
	.byte	$00
	.byte	$A9
	.byte	$01
	.byte	$01
	.byte	$9A
	.byte	$00
	.byte	$02
	.byte	$07
	.byte	$E1
	.byte	$01
	.byte	$01
	.byte	$A0
	.byte	$A1
	.byte	$01
	.byte	$02
	.byte	$03
	.byte	$A0
	.byte	$A1
	.byte	$01
	.byte	$E2
	.byte	$E0
	.byte	$00
	.byte	$02
	.byte	$03
	.byte	$D5
	.byte	$00
	.byte	$A9
	.byte	$AD
	.byte	$01
	.byte	$01
	.byte	$9A
	.byte	$00
	.byte	$02
	.byte	$06
	.byte	$F0
	.byte	$E1
	.byte	$01
	.byte	$B0
	.byte	$B1
	.byte	$01
	.byte	$02
	.byte	$03
	.byte	$B0
	.byte	$B1
	.byte	$01
	.byte	$01
	.byte	$E2
	.byte	$00
	.byte	$02
	.byte	$03
	.byte	$E5
	.byte	$00
	.byte	$A9
	.byte	$BD
	.byte	$AD
	.byte	$01
	.byte	$8B
	.byte	$01
	.byte	$01
	.byte	$E0
	.byte	$00
	.byte	$02
	.byte	$03
	.byte	$E0
	.byte	$F0
	.byte	$C2
	.byte	$C0
	.byte	$02
	.byte	$09
	.byte	$C1
	.byte	$00
	.byte	$02
	.byte	$03
	.byte	$0A
	.byte	$00
	.byte	$A9
	.byte	$BD
	.byte	$BD
	.byte	$AD
	.byte	$8B
	.byte	$01
	.byte	$01
	.byte	$00
	.byte	$02
	.byte	$18
	.byte	$A9
	.byte	$BD
	.byte	$AA
	.byte	$BD
	.byte	$AE
	.byte	$01
	.byte	$01
	.byte	$00
	.byte	$02
	.byte	$18
	.byte	$A9
	.byte	$BD
	.byte	$BA
	.byte	$BB
	.byte	$BD
	.byte	$89
	.byte	$89
	.byte	$19
	.byte	$00
	.byte	$02
	.byte	$03
	.byte	$E0
	.byte	$00
	.byte	$02
	.byte	$07
	.byte	$F1
	.byte	$00
	.byte	$02
	.byte	$09
	.byte	$A9
	.byte	$BD
	.byte	$CA
	.byte	$CB
	.byte	$BD
	.byte	$89
	.byte	$89
	.byte	$04
	.byte	$1C
	.byte	$00
	.byte	$02
	.byte	$06
	.byte	$E0
	.byte	$00
	.byte	$02
	.byte	$0E
	.byte	$0A
	.byte	$9D
	.byte	$DA
	.byte	$DB
	.byte	$BD
	.byte	$89
	.byte	$89
	.byte	$12
	.byte	$04
	.byte	$09
	.byte	$00
	.byte	$02
	.byte	$08
	.byte	$0A
	.byte	$00
	.byte	$02
	.byte	$08
	.byte	$E0
	.byte	$00
	.byte	$02
	.byte	$03
	.byte	$EA
	.byte	$EB
	.byte	$BD
	.byte	$89
	.byte	$89
	.byte	$04
	.byte	$11
	.byte	$05
	.byte	$09
	.byte	$19
	.byte	$00
	.byte	$02
	.byte	$16
	.byte	$FB
	.byte	$BD
	.byte	$89
	.byte	$89
	.byte	$04
	.byte	$04
	.byte	$05
	.byte	$05
	.byte	$04
	.byte	$09
	.byte	$00
	.byte	$0C
	.byte	$00
	.byte	$02
	.byte	$04
	.byte	$0C
	.byte	$00
	.byte	$02
	.byte	$02
	.byte	$E3
	.byte	$00
	.byte	$0C
	.byte	$00
	.byte	$02
	.byte	$04
	.byte	$0C
	.byte	$00
	.byte	$02
	.byte	$02
	.byte	$9D
	.byte	$89
	.byte	$89
	.byte	$04
	.byte	$12
	.byte	$04
	.byte	$05
	.byte	$04
	.byte	$05
	.byte	$1C
	.byte	$00
	.byte	$0C
	.byte	$00
	.byte	$02
	.byte	$04
	.byte	$0C
	.byte	$00
	.byte	$00
	.byte	$D3
	.byte	$00
	.byte	$00
	.byte	$0C
	.byte	$00
	.byte	$02
	.byte	$04
	.byte	$0C
	.byte	$00
	.byte	$00
	.byte	$08
	.byte	$11
	.byte	$11
	.byte	$04
	.byte	$05
	.byte	$02
	.byte	$02
	.byte	$04
	.byte	$12
	.byte	$04
	.byte	$07
	.byte	$00
	.byte	$0C
	.byte	$00
	.byte	$02
	.byte	$04
	.byte	$0C
	.byte	$00
	.byte	$02
	.byte	$04
	.byte	$0C
	.byte	$00
	.byte	$02
	.byte	$04
	.byte	$0C
	.byte	$17
	.byte	$11
	.byte	$02
	.byte	$02
	.byte	$FF
	.byte	$02
	.byte	$02
	.byte	$3F
	.byte	$00
	.byte	$FC
	.byte	$FF
	.byte	$FF
	.byte	$0F
	.byte	$0F
	.byte	$03
	.byte	$00
	.byte	$00
	.byte	$5C
	.byte	$1F
	.byte	$0F
	.byte	$C0
	.byte	$F0
	.byte	$02
	.byte	$02
	.byte	$30
	.byte	$55
	.byte	$D5
	.byte	$F0
	.byte	$0C
	.byte	$FF
	.byte	$02
	.byte	$03
	.byte	$44
	.byte	$5C
	.byte	$5F
	.byte	$00
	.byte	$00
	.byte	$22
	.byte	$88
	.byte	$00
	.byte	$54
	.byte	$55
	.byte	$55
	.byte	$30
	.byte	$00
	.byte	$02
	.byte	$03
	.byte	$0F
	.byte	$55
	.byte	$55
	.byte	$FF
	.byte	$30
	.byte	$00
	.byte	$03
	.byte	$00
	.byte	$00
	.byte	$07
	.byte	$55
	.byte	$0F
	.byte	$0F
	.byte	$00
	.byte	$02
	.byte	$04
	.byte	$0F
	.byte	$02
	.byte	$00
.segment	"BANK2"
_level_0_max:
	.byte	$42,$69,$74,$20,$74,$6F,$6F,$20,$6D,$75,$63,$68,$2C,$20,$62,$75
	.byte	$62,$2E,$00
_level_0_good:
	.byte	$21,$21,$21,$20,$57,$4F,$57,$20,$21,$21,$21,$0A,$59,$6F,$75,$27
	.byte	$76,$65,$20,$67,$6F,$74,$20,$69,$74,$20,$6B,$69,$64,$21,$00
_level_0_ok:
	.byte	$48,$6D,$6D,$6D,$6D,$6D,$2E,$2E,$2E,$2E,$0A,$50,$75,$6D,$70,$20
	.byte	$68,$61,$72,$64,$65,$72,$2E,$00
_level_0_bad:
	.byte	$59,$6F,$75,$20,$6A,$75,$73,$74,$20,$64,$6F,$6E,$27,$74,$0A,$68
	.byte	$61,$76,$65,$20,$77,$68,$61,$74,$20,$69,$74,$20,$74,$61,$6B,$65
	.byte	$73,$2E,$2E,$2E,$00
.segment	"BANK3"
.segment	"BANK4"
_FUTURE_PUMP_LEVEL:
	.byte	$00
	.byte	$00
	.byte	$15
	.byte	$00
	.byte	$00
	.byte	$00
	.byte	$39
	.byte	$02
	.byte	$02
	.byte	$02
	.byte	$02
	.byte	$02
	.byte	$02
	.byte	$02
	.byte	$02
	.byte	$02
	.byte	$02
	.byte	$02
	.byte	$02
	.byte	$02
	.byte	$02
	.byte	$02
	.byte	$02
	.byte	$02
	.byte	$02
	.byte	$27
	.byte	$00
	.byte	$00
	.byte	$00
	.byte	$00
	.byte	$00
	.byte	$00
	.byte	$44
	.byte	$00
	.byte	$00
	.byte	$00
	.byte	$9A
	.byte	$9B
	.byte	$39
	.byte	$02
	.byte	$2B
	.byte	$81
	.byte	$82
	.byte	$83
	.byte	$84
	.byte	$2B
	.byte	$02
	.byte	$02
	.byte	$02
	.byte	$02
	.byte	$2B
	.byte	$71
	.byte	$72
	.byte	$73
	.byte	$74
	.byte	$2B
	.byte	$02
	.byte	$27
	.byte	$9C
	.byte	$9D
	.byte	$00
	.byte	$00
	.byte	$00
	.byte	$00
	.byte	$00
	.byte	$00
	.byte	$00
	.byte	$44
	.byte	$AA
	.byte	$AB
	.byte	$39
	.byte	$27
	.byte	$00
	.byte	$00
	.byte	$00
	.byte	$00
	.byte	$00
	.byte	$00
	.byte	$39
	.byte	$02
	.byte	$02
	.byte	$27
	.byte	$00
	.byte	$00
	.byte	$00
	.byte	$00
	.byte	$00
	.byte	$00
	.byte	$39
	.byte	$27
	.byte	$AC
	.byte	$AD
	.byte	$00
	.byte	$00
	.byte	$00
	.byte	$00
	.byte	$00
	.byte	$00
	.byte	$00
	.byte	$00
	.byte	$00
	.byte	$00
	.byte	$39
	.byte	$27
	.byte	$00
	.byte	$00
	.byte	$00
	.byte	$00
	.byte	$00
	.byte	$00
	.byte	$39
	.byte	$02
	.byte	$02
	.byte	$27
	.byte	$00
	.byte	$00
	.byte	$00
	.byte	$00
	.byte	$00
	.byte	$00
	.byte	$39
	.byte	$27
	.byte	$00
	.byte	$00
	.byte	$00
	.byte	$05
	.byte	$00
	.byte	$00
	.byte	$00
	.byte	$00
	.byte	$00
	.byte	$00
	.byte	$00
	.byte	$00
	.byte	$39
	.byte	$27
	.byte	$00
	.byte	$00
	.byte	$00
	.byte	$00
	.byte	$00
	.byte	$00
	.byte	$39
	.byte	$02
	.byte	$02
	.byte	$27
	.byte	$00
	.byte	$00
	.byte	$00
	.byte	$00
	.byte	$00
	.byte	$00
	.byte	$39
	.byte	$27
	.byte	$00
	.byte	$00
	.byte	$00
	.byte	$00
	.byte	$00
	.byte	$00
	.byte	$00
	.byte	$00
	.byte	$00
	.byte	$00
	.byte	$9A
	.byte	$9B
	.byte	$39
	.byte	$27
	.byte	$00
	.byte	$00
	.byte	$00
	.byte	$00
	.byte	$00
	.byte	$00
	.byte	$39
	.byte	$02
	.byte	$02
	.byte	$27
	.byte	$00
	.byte	$00
	.byte	$00
	.byte	$00
	.byte	$00
	.byte	$00
	.byte	$39
	.byte	$27
	.byte	$9C
	.byte	$9D
	.byte	$00
	.byte	$00
	.byte	$00
	.byte	$00
	.byte	$00
	.byte	$44
	.byte	$00
	.byte	$00
	.byte	$AA
	.byte	$AB
	.byte	$39
	.byte	$02
	.byte	$2A
	.byte	$2A
	.byte	$2A
	.byte	$2A
	.byte	$2A
	.byte	$2A
	.byte	$02
	.byte	$02
	.byte	$02
	.byte	$02
	.byte	$2A
	.byte	$2A
	.byte	$2A
	.byte	$2A
	.byte	$2A
	.byte	$2A
	.byte	$02
	.byte	$27
	.byte	$AC
	.byte	$AD
	.byte	$00
	.byte	$00
	.byte	$00
	.byte	$00
	.byte	$00
	.byte	$00
	.byte	$00
	.byte	$00
	.byte	$00
	.byte	$00
	.byte	$66
	.byte	$61
	.byte	$61
	.byte	$61
	.byte	$61
	.byte	$61
	.byte	$61
	.byte	$61
	.byte	$61
	.byte	$61
	.byte	$61
	.byte	$61
	.byte	$61
	.byte	$61
	.byte	$61
	.byte	$61
	.byte	$61
	.byte	$61
	.byte	$61
	.byte	$67
	.byte	$00
	.byte	$00
	.byte	$00
	.byte	$00
	.byte	$00
	.byte	$00
	.byte	$00
	.byte	$00
	.byte	$00
	.byte	$00
	.byte	$00
	.byte	$00
	.byte	$00
	.byte	$00
	.byte	$00
	.byte	$00
	.byte	$00
	.byte	$00
	.byte	$00
	.byte	$00
	.byte	$00
	.byte	$00
	.byte	$44
	.byte	$00
	.byte	$00
	.byte	$00
	.byte	$00
	.byte	$00
	.byte	$00
	.byte	$00
	.byte	$00
	.byte	$00
	.byte	$00
	.byte	$00
	.byte	$00
	.byte	$00
	.byte	$00
	.byte	$00
	.byte	$00
	.byte	$00
	.byte	$00
	.byte	$00
	.byte	$00
	.byte	$00
	.byte	$00
	.byte	$44
	.byte	$00
	.byte	$00
	.byte	$00
	.byte	$00
	.byte	$44
	.byte	$00
	.byte	$11
	.byte	$11
	.byte	$11
	.byte	$11
	.byte	$00
	.byte	$00
	.byte	$00
	.byte	$00
	.byte	$00
	.byte	$00
	.byte	$00
	.byte	$00
	.byte	$00
	.byte	$00
	.byte	$44
	.byte	$00
	.byte	$00
	.byte	$00
	.byte	$00
	.byte	$00
	.byte	$00
	.byte	$44
	.byte	$00
	.byte	$00
	.byte	$00
	.byte	$00
	.byte	$00
	.byte	$00
	.byte	$00
	.byte	$00
	.byte	$00
	.byte	$41
	.byte	$11
	.byte	$11
	.byte	$11
	.byte	$11
	.byte	$42
	.byte	$00
	.byte	$00
	.byte	$00
	.byte	$00
	.byte	$43
	.byte	$00
	.byte	$00
	.byte	$00
	.byte	$00
	.byte	$00
	.byte	$00
	.byte	$00
	.byte	$00
	.byte	$00
	.byte	$00
	.byte	$00
	.byte	$00
	.byte	$00
	.byte	$00
	.byte	$00
	.byte	$00
	.byte	$44
	.byte	$00
	.byte	$00
	.byte	$00
	.byte	$21
	.byte	$00
	.byte	$00
	.byte	$00
	.byte	$00
	.byte	$00
	.byte	$00
	.byte	$31
	.byte	$00
	.byte	$00
	.byte	$00
	.byte	$00
	.byte	$00
	.byte	$00
	.byte	$00
	.byte	$00
	.byte	$00
	.byte	$00
	.byte	$00
	.byte	$00
	.byte	$00
	.byte	$00
	.byte	$00
	.byte	$00
	.byte	$00
	.byte	$00
	.byte	$00
	.byte	$00
	.byte	$00
	.byte	$00
	.byte	$00
	.byte	$20
	.byte	$10
	.byte	$10
	.byte	$10
	.byte	$10
	.byte	$10
	.byte	$10
	.byte	$10
	.byte	$10
	.byte	$30
	.byte	$00
	.byte	$00
	.byte	$00
	.byte	$00
	.byte	$00
	.byte	$00
	.byte	$00
	.byte	$00
	.byte	$00
	.byte	$00
	.byte	$00
	.byte	$00
	.byte	$00
	.byte	$05
	.byte	$00
	.byte	$00
	.byte	$00
	.byte	$00
	.byte	$00
	.byte	$00
	.byte	$00
	.byte	$00
	.byte	$20
	.byte	$03
	.byte	$03
	.byte	$03
	.byte	$03
	.byte	$03
	.byte	$03
	.byte	$03
	.byte	$03
	.byte	$30
	.byte	$00
	.byte	$00
	.byte	$44
	.byte	$00
	.byte	$00
	.byte	$00
	.byte	$00
	.byte	$00
	.byte	$00
	.byte	$00
	.byte	$00
	.byte	$00
	.byte	$44
	.byte	$00
	.byte	$00
	.byte	$00
	.byte	$00
	.byte	$00
	.byte	$00
	.byte	$00
	.byte	$00
	.byte	$00
	.byte	$20
	.byte	$03
	.byte	$03
	.byte	$03
	.byte	$03
	.byte	$03
	.byte	$03
	.byte	$03
	.byte	$03
	.byte	$30
	.byte	$00
	.byte	$00
	.byte	$00
	.byte	$00
	.byte	$00
	.byte	$44
	.byte	$00
	.byte	$00
	.byte	$00
	.byte	$44
	.byte	$00
	.byte	$00
	.byte	$00
	.byte	$00
	.byte	$00
	.byte	$00
	.byte	$00
	.byte	$15
	.byte	$00
	.byte	$44
	.byte	$00
	.byte	$00
	.byte	$20
	.byte	$03
	.byte	$03
	.byte	$03
	.byte	$03
	.byte	$03
	.byte	$03
	.byte	$03
	.byte	$03
	.byte	$30
	.byte	$00
	.byte	$00
	.byte	$00
	.byte	$00
	.byte	$00
	.byte	$00
	.byte	$00
	.byte	$00
	.byte	$00
	.byte	$00
	.byte	$00
	.byte	$04
	.byte	$04
	.byte	$08
	.byte	$09
	.byte	$00
	.byte	$00
	.byte	$00
	.byte	$00
	.byte	$00
	.byte	$00
	.byte	$00
	.byte	$20
	.byte	$03
	.byte	$03
	.byte	$03
	.byte	$03
	.byte	$03
	.byte	$03
	.byte	$03
	.byte	$03
	.byte	$30
	.byte	$00
	.byte	$44
	.byte	$00
	.byte	$00
	.byte	$00
	.byte	$00
	.byte	$00
	.byte	$00
	.byte	$00
	.byte	$00
	.byte	$00
	.byte	$14
	.byte	$14
	.byte	$18
	.byte	$19
	.byte	$00
	.byte	$00
	.byte	$00
	.byte	$00
	.byte	$00
	.byte	$00
	.byte	$00
	.byte	$20
	.byte	$03
	.byte	$3A
	.byte	$03
	.byte	$03
	.byte	$03
	.byte	$03
	.byte	$3B
	.byte	$03
	.byte	$30
	.byte	$00
	.byte	$00
	.byte	$00
	.byte	$00
	.byte	$00
	.byte	$00
	.byte	$00
	.byte	$00
	.byte	$00
	.byte	$00
	.byte	$00
	.byte	$00
	.byte	$00
	.byte	$25
	.byte	$26
	.byte	$44
	.byte	$45
	.byte	$46
	.byte	$47
	.byte	$48
	.byte	$49
	.byte	$0E
	.byte	$0F
	.byte	$61
	.byte	$62
	.byte	$63
	.byte	$64
	.byte	$65
	.byte	$63
	.byte	$62
	.byte	$61
	.byte	$2E
	.byte	$2F
	.byte	$76
	.byte	$C4
	.byte	$C5
	.byte	$79
	.byte	$7A
	.byte	$7B
	.byte	$00
	.byte	$00
	.byte	$00
	.byte	$00
	.byte	$50
	.byte	$51
	.byte	$25
	.byte	$26
	.byte	$54
	.byte	$93
	.byte	$87
	.byte	$87
	.byte	$C2
	.byte	$87
	.byte	$1E
	.byte	$1F
	.byte	$02
	.byte	$02
	.byte	$02
	.byte	$02
	.byte	$02
	.byte	$02
	.byte	$02
	.byte	$02
	.byte	$3E
	.byte	$3F
	.byte	$86
	.byte	$93
	.byte	$88
	.byte	$C2
	.byte	$87
	.byte	$8B
	.byte	$8C
	.byte	$8D
	.byte	$8E
	.byte	$8F
	.byte	$90
	.byte	$91
	.byte	$25
	.byte	$26
	.byte	$A3
	.byte	$C1
	.byte	$B0
	.byte	$B1
	.byte	$B2
	.byte	$B3
	.byte	$35
	.byte	$36
	.byte	$70
	.byte	$02
	.byte	$02
	.byte	$29
	.byte	$27
	.byte	$40
	.byte	$40
	.byte	$28
	.byte	$25
	.byte	$26
	.byte	$87
	.byte	$94
	.byte	$95
	.byte	$87
	.byte	$A2
	.byte	$92
	.byte	$87
	.byte	$C2
	.byte	$A4
	.byte	$A5
	.byte	$A0
	.byte	$A1
	.byte	$25
	.byte	$26
	.byte	$B0
	.byte	$B1
	.byte	$B2
	.byte	$B3
	.byte	$C3
	.byte	$C3
	.byte	$35
	.byte	$36
	.byte	$70
	.byte	$02
	.byte	$02
	.byte	$29
	.byte	$27
	.byte	$02
	.byte	$02
	.byte	$28
	.byte	$25
	.byte	$26
	.byte	$87
	.byte	$C1
	.byte	$A3
	.byte	$87
	.byte	$C1
	.byte	$87
	.byte	$A3
	.byte	$87
	.byte	$B4
	.byte	$B5
	.byte	$87
	.byte	$87
	.byte	$25
	.byte	$26
	.byte	$C0
	.byte	$C1
	.byte	$C2
	.byte	$C3
	.byte	$A2
	.byte	$C2
	.byte	$35
	.byte	$36
	.byte	$70
	.byte	$02
	.byte	$02
	.byte	$29
	.byte	$02
	.byte	$37
	.byte	$38
	.byte	$60
	.byte	$25
	.byte	$26
	.byte	$87
	.byte	$92
	.byte	$88
	.byte	$87
	.byte	$87
	.byte	$87
	.byte	$87
	.byte	$C1
	.byte	$87
	.byte	$C1
	.byte	$87
	.byte	$C2
	.byte	$25
	.byte	$26
	.byte	$87
	.byte	$C2
	.byte	$A2
	.byte	$87
	.byte	$C3
	.byte	$C2
	.byte	$35
	.byte	$36
	.byte	$70
	.byte	$02
	.byte	$02
	.byte	$29
	.byte	$02
	.byte	$02
	.byte	$02
	.byte	$60
	.byte	$25
	.byte	$26
	.byte	$C1
	.byte	$87
	.byte	$87
	.byte	$C0
	.byte	$C1
	.byte	$87
	.byte	$87
	.byte	$87
	.byte	$93
	.byte	$C2
	.byte	$87
	.byte	$A2
	.byte	$0A
	.byte	$0B
	.byte	$24
	.byte	$24
	.byte	$24
	.byte	$24
	.byte	$24
	.byte	$24
	.byte	$0C
	.byte	$0D
	.byte	$70
	.byte	$02
	.byte	$02
	.byte	$29
	.byte	$02
	.byte	$02
	.byte	$02
	.byte	$60
	.byte	$0A
	.byte	$0B
	.byte	$24
	.byte	$24
	.byte	$24
	.byte	$24
	.byte	$24
	.byte	$24
	.byte	$08
	.byte	$09
	.byte	$87
	.byte	$87
	.byte	$C2
	.byte	$87
	.byte	$1A
	.byte	$1B
	.byte	$34
	.byte	$34
	.byte	$34
	.byte	$34
	.byte	$34
	.byte	$34
	.byte	$1C
	.byte	$1D
	.byte	$55
	.byte	$56
	.byte	$57
	.byte	$58
	.byte	$58
	.byte	$59
	.byte	$5A
	.byte	$5B
	.byte	$1A
	.byte	$1B
	.byte	$34
	.byte	$34
	.byte	$34
	.byte	$34
	.byte	$34
	.byte	$34
	.byte	$18
	.byte	$19
	.byte	$87
	.byte	$C2
	.byte	$87
	.byte	$C2
	.byte	$87
	.byte	$87
	.byte	$87
	.byte	$87
	.byte	$C2
	.byte	$87
	.byte	$87
	.byte	$87
	.byte	$87
	.byte	$87
	.byte	$70
	.byte	$38
	.byte	$02
	.byte	$02
	.byte	$02
	.byte	$02
	.byte	$37
	.byte	$60
	.byte	$87
	.byte	$C2
	.byte	$A2
	.byte	$87
	.byte	$87
	.byte	$C2
	.byte	$C2
	.byte	$87
	.byte	$25
	.byte	$26
	.byte	$A2
	.byte	$92
	.byte	$87
	.byte	$94
	.byte	$95
	.byte	$C2
	.byte	$C2
	.byte	$87
	.byte	$93
	.byte	$87
	.byte	$A2
	.byte	$C1
	.byte	$A2
	.byte	$87
	.byte	$70
	.byte	$02
	.byte	$02
	.byte	$02
	.byte	$02
	.byte	$02
	.byte	$02
	.byte	$60
	.byte	$C1
	.byte	$87
	.byte	$87
	.byte	$B0
	.byte	$B1
	.byte	$B2
	.byte	$B3
	.byte	$87
	.byte	$25
	.byte	$26
	.byte	$C2
	.byte	$A2
	.byte	$93
	.byte	$C2
	.byte	$87
	.byte	$A2
	.byte	$87
	.byte	$87
	.byte	$C2
	.byte	$87
	.byte	$94
	.byte	$95
	.byte	$C2
	.byte	$87
	.byte	$70
	.byte	$A2
	.byte	$02
	.byte	$60
	.byte	$70
	.byte	$02
	.byte	$02
	.byte	$60
	.byte	$B2
	.byte	$B3
	.byte	$93
	.byte	$C0
	.byte	$C1
	.byte	$C2
	.byte	$94
	.byte	$95
	.byte	$25
	.byte	$26
	.byte	$87
	.byte	$C2
	.byte	$87
	.byte	$87
	.byte	$92
	.byte	$87
	.byte	$87
	.byte	$87
	.byte	$C1
	.byte	$87
	.byte	$C2
	.byte	$C1
	.byte	$87
	.byte	$87
	.byte	$70
	.byte	$02
	.byte	$02
	.byte	$60
	.byte	$70
	.byte	$02
	.byte	$02
	.byte	$60
	.byte	$C2
	.byte	$C3
	.byte	$87
	.byte	$87
	.byte	$87
	.byte	$87
	.byte	$C1
	.byte	$87
	.byte	$25
	.byte	$26
	.byte	$87
	.byte	$A2
	.byte	$00
	.byte	$AA
	.byte	$AA
	.byte	$AA
	.byte	$AA
	.byte	$AA
	.byte	$AA
	.byte	$00
	.byte	$00
	.byte	$AA
	.byte	$AA
	.byte	$AA
	.byte	$AA
	.byte	$AA
	.byte	$AA
	.byte	$40
	.byte	$00
	.byte	$50
	.byte	$00
	.byte	$00
	.byte	$00
	.byte	$00
	.byte	$00
	.byte	$00
	.byte	$40
	.byte	$15
	.byte	$01
	.byte	$FF
	.byte	$FF
	.byte	$00
	.byte	$25
	.byte	$10
	.byte	$D3
	.byte	$55
	.byte	$11
	.byte	$0F
	.byte	$0F
	.byte	$40
	.byte	$55
	.byte	$51
	.byte	$DD
	.byte	$55
	.byte	$DD
	.byte	$00
	.byte	$00
	.byte	$77
	.byte	$55
	.byte	$55
	.byte	$51
	.byte	$5F
	.byte	$53
	.byte	$00
	.byte	$00
	.byte	$5C
	.byte	$5F
	.byte	$74
	.byte	$05
	.byte	$05
	.byte	$05
	.byte	$00
	.byte	$00
	.byte	$05
	.byte	$05
	.byte	$07
_abduction_cutscene:
	.byte	$12
	.byte	$05
	.byte	$04
	.byte	$04
	.byte	$11
	.byte	$04
	.byte	$05
	.byte	$04
	.byte	$04
	.byte	$11
	.byte	$05
	.byte	$04
	.byte	$04
	.byte	$04
	.byte	$07
	.byte	$00
	.byte	$E0
	.byte	$F2
	.byte	$E0
	.byte	$E0
	.byte	$F1
	.byte	$E0
	.byte	$00
	.byte	$08
	.byte	$04
	.byte	$04
	.byte	$11
	.byte	$04
	.byte	$04
	.byte	$04
	.byte	$11
	.byte	$04
	.byte	$04
	.byte	$04
	.byte	$04
	.byte	$05
	.byte	$04
	.byte	$04
	.byte	$04
	.byte	$04
	.byte	$04
	.byte	$04
	.byte	$04
	.byte	$04
	.byte	$04
	.byte	$07
	.byte	$00
	.byte	$00
	.byte	$E0
	.byte	$F1
	.byte	$F2
	.byte	$F1
	.byte	$E0
	.byte	$E0
	.byte	$08
	.byte	$04
	.byte	$05
	.byte	$04
	.byte	$04
	.byte	$04
	.byte	$05
	.byte	$04
	.byte	$04
	.byte	$04
	.byte	$04
	.byte	$11
	.byte	$0E
	.byte	$0F
	.byte	$04
	.byte	$0E
	.byte	$0F
	.byte	$04
	.byte	$0E
	.byte	$0F
	.byte	$04
	.byte	$12
	.byte	$07
	.byte	$00
	.byte	$F2
	.byte	$00
	.byte	$F1
	.byte	$E0
	.byte	$E0
	.byte	$E0
	.byte	$00
	.byte	$17
	.byte	$11
	.byte	$05
	.byte	$0E
	.byte	$0F
	.byte	$05
	.byte	$0E
	.byte	$0F
	.byte	$04
	.byte	$0E
	.byte	$0F
	.byte	$05
	.byte	$05
	.byte	$1E
	.byte	$1F
	.byte	$04
	.byte	$1E
	.byte	$1F
	.byte	$11
	.byte	$1E
	.byte	$1F
	.byte	$04
	.byte	$07
	.byte	$00
	.byte	$00
	.byte	$E0
	.byte	$00
	.byte	$00
	.byte	$00
	.byte	$E0
	.byte	$F1
	.byte	$00
	.byte	$16
	.byte	$05
	.byte	$04
	.byte	$1E
	.byte	$1F
	.byte	$04
	.byte	$1E
	.byte	$1F
	.byte	$04
	.byte	$1E
	.byte	$1F
	.byte	$07
	.byte	$15
	.byte	$14
	.byte	$15
	.byte	$15
	.byte	$15
	.byte	$15
	.byte	$15
	.byte	$15
	.byte	$15
	.byte	$00
	.byte	$00
	.byte	$E0
	.byte	$00
	.byte	$00
	.byte	$00
	.byte	$00
	.byte	$00
	.byte	$00
	.byte	$00
	.byte	$00
	.byte	$00
	.byte	$15
	.byte	$14
	.byte	$14
	.byte	$15
	.byte	$14
	.byte	$0D
	.byte	$15
	.byte	$15
	.byte	$15
	.byte	$15
	.byte	$00
	.byte	$00
	.byte	$00
	.byte	$00
	.byte	$00
	.byte	$00
	.byte	$00
	.byte	$00
	.byte	$00
	.byte	$00
	.byte	$00
	.byte	$00
	.byte	$00
	.byte	$00
	.byte	$00
	.byte	$00
	.byte	$00
	.byte	$00
	.byte	$00
	.byte	$00
	.byte	$00
	.byte	$00
	.byte	$00
	.byte	$00
	.byte	$00
	.byte	$00
	.byte	$00
	.byte	$00
	.byte	$00
	.byte	$00
	.byte	$00
	.byte	$00
	.byte	$E0
	.byte	$00
	.byte	$00
	.byte	$00
	.byte	$00
	.byte	$00
	.byte	$00
	.byte	$00
	.byte	$00
	.byte	$00
	.byte	$00
	.byte	$00
	.byte	$00
	.byte	$00
	.byte	$00
	.byte	$00
	.byte	$00
	.byte	$00
	.byte	$00
	.byte	$00
	.byte	$00
	.byte	$00
	.byte	$00
	.byte	$00
	.byte	$00
	.byte	$00
	.byte	$00
	.byte	$00
	.byte	$00
	.byte	$00
	.byte	$00
	.byte	$E0
	.byte	$00
	.byte	$00
	.byte	$00
	.byte	$0B
	.byte	$00
	.byte	$00
	.byte	$00
	.byte	$0B
	.byte	$00
	.byte	$00
	.byte	$00
	.byte	$0B
	.byte	$00
	.byte	$00
	.byte	$00
	.byte	$0B
	.byte	$00
	.byte	$00
	.byte	$00
	.byte	$0B
	.byte	$00
	.byte	$83
	.byte	$84
	.byte	$85
	.byte	$86
	.byte	$87
	.byte	$00
	.byte	$0B
	.byte	$00
	.byte	$00
	.byte	$00
	.byte	$0B
	.byte	$00
	.byte	$00
	.byte	$00
	.byte	$00
	.byte	$00
	.byte	$00
	.byte	$00
	.byte	$00
	.byte	$00
	.byte	$00
	.byte	$00
	.byte	$00
	.byte	$00
	.byte	$00
	.byte	$00
	.byte	$00
	.byte	$00
	.byte	$00
	.byte	$00
	.byte	$00
	.byte	$92
	.byte	$93
	.byte	$94
	.byte	$95
	.byte	$96
	.byte	$97
	.byte	$98
	.byte	$00
	.byte	$00
	.byte	$00
	.byte	$00
	.byte	$00
	.byte	$00
	.byte	$00
	.byte	$00
	.byte	$00
	.byte	$00
	.byte	$00
	.byte	$00
	.byte	$00
	.byte	$00
	.byte	$00
	.byte	$00
	.byte	$00
	.byte	$00
	.byte	$00
	.byte	$00
	.byte	$00
	.byte	$00
	.byte	$00
	.byte	$00
	.byte	$00
	.byte	$A2
	.byte	$A3
	.byte	$A4
	.byte	$A5
	.byte	$A6
	.byte	$A7
	.byte	$A8
	.byte	$00
	.byte	$00
	.byte	$00
	.byte	$00
	.byte	$00
	.byte	$00
	.byte	$00
	.byte	$00
	.byte	$00
	.byte	$00
	.byte	$00
	.byte	$00
	.byte	$00
	.byte	$00
	.byte	$00
	.byte	$00
	.byte	$00
	.byte	$00
	.byte	$00
	.byte	$00
	.byte	$00
	.byte	$00
	.byte	$00
	.byte	$00
	.byte	$00
	.byte	$B2
	.byte	$B3
	.byte	$B4
	.byte	$B5
	.byte	$B6
	.byte	$B7
	.byte	$B8
	.byte	$00
	.byte	$00
	.byte	$00
	.byte	$00
	.byte	$00
	.byte	$00
	.byte	$00
	.byte	$08
	.byte	$09
	.byte	$18
	.byte	$18
	.byte	$19
	.byte	$18
	.byte	$19
	.byte	$19
	.byte	$18
	.byte	$18
	.byte	$19
	.byte	$18
	.byte	$18
	.byte	$18
	.byte	$09
	.byte	$00
	.byte	$00
	.byte	$00
	.byte	$00
	.byte	$C3
	.byte	$C4
	.byte	$C5
	.byte	$C6
	.byte	$C7
	.byte	$00
	.byte	$08
	.byte	$18
	.byte	$19
	.byte	$08
	.byte	$18
	.byte	$00
	.byte	$00
	.byte	$1D
	.byte	$04
	.byte	$11
	.byte	$04
	.byte	$05
	.byte	$05
	.byte	$04
	.byte	$04
	.byte	$05
	.byte	$04
	.byte	$05
	.byte	$05
	.byte	$05
	.byte	$11
	.byte	$04
	.byte	$1C
	.byte	$0A
	.byte	$00
	.byte	$00
	.byte	$00
	.byte	$00
	.byte	$D5
	.byte	$00
	.byte	$00
	.byte	$00
	.byte	$1D
	.byte	$04
	.byte	$04
	.byte	$11
	.byte	$05
	.byte	$00
	.byte	$E3
	.byte	$00
	.byte	$1D
	.byte	$05
	.byte	$04
	.byte	$05
	.byte	$11
	.byte	$04
	.byte	$05
	.byte	$04
	.byte	$11
	.byte	$05
	.byte	$04
	.byte	$12
	.byte	$05
	.byte	$04
	.byte	$11
	.byte	$1C
	.byte	$00
	.byte	$00
	.byte	$00
	.byte	$00
	.byte	$D5
	.byte	$00
	.byte	$F1
	.byte	$00
	.byte	$00
	.byte	$1D
	.byte	$05
	.byte	$05
	.byte	$04
	.byte	$00
	.byte	$00
	.byte	$F1
	.byte	$00
	.byte	$15
	.byte	$14
	.byte	$14
	.byte	$15
	.byte	$14
	.byte	$14
	.byte	$15
	.byte	$14
	.byte	$15
	.byte	$14
	.byte	$15
	.byte	$15
	.byte	$15
	.byte	$14
	.byte	$0D
	.byte	$00
	.byte	$00
	.byte	$00
	.byte	$00
	.byte	$D5
	.byte	$00
	.byte	$00
	.byte	$00
	.byte	$00
	.byte	$00
	.byte	$00
	.byte	$00
	.byte	$00
	.byte	$00
	.byte	$00
	.byte	$00
	.byte	$00
	.byte	$00
	.byte	$00
	.byte	$00
	.byte	$00
	.byte	$00
	.byte	$00
	.byte	$00
	.byte	$00
	.byte	$00
	.byte	$00
	.byte	$00
	.byte	$00
	.byte	$00
	.byte	$00
	.byte	$00
	.byte	$00
	.byte	$00
	.byte	$00
	.byte	$00
	.byte	$D5
	.byte	$00
	.byte	$A9
	.byte	$9C
	.byte	$01
	.byte	$01
	.byte	$01
	.byte	$01
	.byte	$01
	.byte	$00
	.byte	$00
	.byte	$00
	.byte	$00
	.byte	$00
	.byte	$00
	.byte	$00
	.byte	$00
	.byte	$80
	.byte	$81
	.byte	$00
	.byte	$00
	.byte	$00
	.byte	$00
	.byte	$80
	.byte	$81
	.byte	$00
	.byte	$00
	.byte	$00
	.byte	$E0
	.byte	$00
	.byte	$00
	.byte	$00
	.byte	$D5
	.byte	$00
	.byte	$A9
	.byte	$01
	.byte	$9C
	.byte	$01
	.byte	$01
	.byte	$01
	.byte	$01
	.byte	$00
	.byte	$00
	.byte	$00
	.byte	$00
	.byte	$00
	.byte	$D2
	.byte	$D0
	.byte	$D0
	.byte	$90
	.byte	$91
	.byte	$D0
	.byte	$D0
	.byte	$D0
	.byte	$D0
	.byte	$90
	.byte	$91
	.byte	$D0
	.byte	$E0
	.byte	$00
	.byte	$00
	.byte	$00
	.byte	$00
	.byte	$00
	.byte	$D5
	.byte	$00
	.byte	$A9
	.byte	$01
	.byte	$01
	.byte	$9A
	.byte	$00
	.byte	$00
	.byte	$00
	.byte	$00
	.byte	$00
	.byte	$00
	.byte	$00
	.byte	$00
	.byte	$E1
	.byte	$01
	.byte	$01
	.byte	$A0
	.byte	$A1
	.byte	$01
	.byte	$01
	.byte	$01
	.byte	$01
	.byte	$A0
	.byte	$A1
	.byte	$01
	.byte	$E2
	.byte	$E0
	.byte	$00
	.byte	$00
	.byte	$00
	.byte	$00
	.byte	$D5
	.byte	$00
	.byte	$A9
	.byte	$AD
	.byte	$01
	.byte	$01
	.byte	$9A
	.byte	$00
	.byte	$00
	.byte	$00
	.byte	$00
	.byte	$00
	.byte	$00
	.byte	$00
	.byte	$F0
	.byte	$E1
	.byte	$01
	.byte	$B0
	.byte	$B1
	.byte	$01
	.byte	$01
	.byte	$01
	.byte	$01
	.byte	$B0
	.byte	$B1
	.byte	$01
	.byte	$01
	.byte	$E2
	.byte	$00
	.byte	$00
	.byte	$00
	.byte	$00
	.byte	$E5
	.byte	$00
	.byte	$A9
	.byte	$BD
	.byte	$AD
	.byte	$01
	.byte	$8B
	.byte	$01
	.byte	$01
	.byte	$E0
	.byte	$00
	.byte	$00
	.byte	$00
	.byte	$00
	.byte	$E0
	.byte	$F0
	.byte	$C2
	.byte	$C0
	.byte	$C0
	.byte	$C0
	.byte	$C0
	.byte	$C0
	.byte	$C0
	.byte	$C0
	.byte	$C0
	.byte	$C0
	.byte	$C0
	.byte	$C1
	.byte	$00
	.byte	$00
	.byte	$00
	.byte	$00
	.byte	$0A
	.byte	$00
	.byte	$A9
	.byte	$BD
	.byte	$BD
	.byte	$AD
	.byte	$8B
	.byte	$01
	.byte	$01
	.byte	$00
	.byte	$00
	.byte	$00
	.byte	$00
	.byte	$00
	.byte	$00
	.byte	$00
	.byte	$00
	.byte	$00
	.byte	$00
	.byte	$00
	.byte	$00
	.byte	$00
	.byte	$00
	.byte	$00
	.byte	$00
	.byte	$00
	.byte	$00
	.byte	$00
	.byte	$00
	.byte	$00
	.byte	$00
	.byte	$00
	.byte	$00
	.byte	$00
	.byte	$A9
	.byte	$BD
	.byte	$AA
	.byte	$BD
	.byte	$AE
	.byte	$01
	.byte	$01
	.byte	$00
	.byte	$00
	.byte	$00
	.byte	$00
	.byte	$00
	.byte	$00
	.byte	$00
	.byte	$00
	.byte	$00
	.byte	$00
	.byte	$00
	.byte	$00
	.byte	$00
	.byte	$00
	.byte	$00
	.byte	$00
	.byte	$00
	.byte	$00
	.byte	$00
	.byte	$00
	.byte	$00
	.byte	$00
	.byte	$00
	.byte	$00
	.byte	$00
	.byte	$A9
	.byte	$BD
	.byte	$BA
	.byte	$BB
	.byte	$BD
	.byte	$89
	.byte	$89
	.byte	$19
	.byte	$00
	.byte	$00
	.byte	$00
	.byte	$00
	.byte	$E0
	.byte	$00
	.byte	$00
	.byte	$00
	.byte	$00
	.byte	$00
	.byte	$00
	.byte	$00
	.byte	$00
	.byte	$F1
	.byte	$00
	.byte	$00
	.byte	$00
	.byte	$00
	.byte	$00
	.byte	$00
	.byte	$00
	.byte	$00
	.byte	$00
	.byte	$00
	.byte	$A9
	.byte	$BD
	.byte	$CA
	.byte	$CB
	.byte	$BD
	.byte	$89
	.byte	$89
	.byte	$04
	.byte	$1C
	.byte	$00
	.byte	$00
	.byte	$00
	.byte	$00
	.byte	$00
	.byte	$00
	.byte	$00
	.byte	$E0
	.byte	$00
	.byte	$00
	.byte	$00
	.byte	$00
	.byte	$00
	.byte	$00
	.byte	$00
	.byte	$00
	.byte	$00
	.byte	$00
	.byte	$00
	.byte	$00
	.byte	$00
	.byte	$00
	.byte	$00
	.byte	$0A
	.byte	$9D
	.byte	$DA
	.byte	$DB
	.byte	$BD
	.byte	$89
	.byte	$89
	.byte	$12
	.byte	$04
	.byte	$09
	.byte	$00
	.byte	$00
	.byte	$00
	.byte	$00
	.byte	$00
	.byte	$00
	.byte	$00
	.byte	$00
	.byte	$00
	.byte	$0A
	.byte	$00
	.byte	$00
	.byte	$00
	.byte	$00
	.byte	$00
	.byte	$00
	.byte	$00
	.byte	$00
	.byte	$00
	.byte	$E0
	.byte	$00
	.byte	$00
	.byte	$00
	.byte	$00
	.byte	$EA
	.byte	$EB
	.byte	$BD
	.byte	$89
	.byte	$89
	.byte	$04
	.byte	$11
	.byte	$05
	.byte	$09
	.byte	$19
	.byte	$00
	.byte	$00
	.byte	$00
	.byte	$00
	.byte	$00
	.byte	$00
	.byte	$00
	.byte	$00
	.byte	$00
	.byte	$00
	.byte	$00
	.byte	$00
	.byte	$00
	.byte	$00
	.byte	$00
	.byte	$00
	.byte	$00
	.byte	$00
	.byte	$00
	.byte	$00
	.byte	$00
	.byte	$00
	.byte	$00
	.byte	$FB
	.byte	$BD
	.byte	$89
	.byte	$89
	.byte	$04
	.byte	$04
	.byte	$05
	.byte	$05
	.byte	$04
	.byte	$09
	.byte	$00
	.byte	$0C
	.byte	$00
	.byte	$00
	.byte	$00
	.byte	$00
	.byte	$00
	.byte	$0C
	.byte	$00
	.byte	$00
	.byte	$00
	.byte	$E3
	.byte	$00
	.byte	$0C
	.byte	$00
	.byte	$00
	.byte	$00
	.byte	$00
	.byte	$00
	.byte	$0C
	.byte	$00
	.byte	$00
	.byte	$00
	.byte	$9D
	.byte	$89
	.byte	$89
	.byte	$04
	.byte	$12
	.byte	$04
	.byte	$05
	.byte	$04
	.byte	$05
	.byte	$1C
	.byte	$00
	.byte	$0C
	.byte	$00
	.byte	$00
	.byte	$00
	.byte	$00
	.byte	$00
	.byte	$0C
	.byte	$00
	.byte	$00
	.byte	$D3
	.byte	$00
	.byte	$00
	.byte	$0C
	.byte	$00
	.byte	$00
	.byte	$00
	.byte	$00
	.byte	$00
	.byte	$0C
	.byte	$00
	.byte	$00
	.byte	$08
	.byte	$11
	.byte	$11
	.byte	$04
	.byte	$05
	.byte	$05
	.byte	$05
	.byte	$04
	.byte	$12
	.byte	$04
	.byte	$07
	.byte	$00
	.byte	$0C
	.byte	$00
	.byte	$00
	.byte	$00
	.byte	$00
	.byte	$00
	.byte	$0C
	.byte	$00
	.byte	$00
	.byte	$00
	.byte	$00
	.byte	$00
	.byte	$0C
	.byte	$00
	.byte	$00
	.byte	$00
	.byte	$00
	.byte	$00
	.byte	$0C
	.byte	$17
	.byte	$11
	.byte	$11
	.byte	$11
	.byte	$FF
	.byte	$FF
	.byte	$FF
	.byte	$3F
	.byte	$00
	.byte	$FC
	.byte	$FF
	.byte	$FF
	.byte	$0F
	.byte	$0F
	.byte	$03
	.byte	$00
	.byte	$00
	.byte	$5C
	.byte	$1F
	.byte	$0F
	.byte	$C0
	.byte	$F0
	.byte	$F0
	.byte	$F0
	.byte	$30
	.byte	$55
	.byte	$D5
	.byte	$F0
	.byte	$0C
	.byte	$FF
	.byte	$FF
	.byte	$FF
	.byte	$FF
	.byte	$44
	.byte	$5C
	.byte	$5F
	.byte	$00
	.byte	$00
	.byte	$22
	.byte	$88
	.byte	$00
	.byte	$54
	.byte	$55
	.byte	$55
	.byte	$30
	.byte	$00
	.byte	$00
	.byte	$00
	.byte	$00
	.byte	$0F
	.byte	$55
	.byte	$55
	.byte	$FF
	.byte	$30
	.byte	$00
	.byte	$03
	.byte	$00
	.byte	$00
	.byte	$07
	.byte	$55
	.byte	$0F
	.byte	$0F
	.byte	$00
	.byte	$00
	.byte	$00
	.byte	$00
	.byte	$00
	.byte	$0F
.segment	"CODE"
L39BC:
	.byte	$47,$61,$73,$20,$41,$74,$74,$65,$6E,$64,$61,$6E,$74,$20,$53,$69
	.byte	$6D,$75,$6C,$61,$74,$6F,$72,$00
L3575:
	.byte	$20,$20,$20,$20,$20,$20,$20,$20,$20,$20,$20,$20,$20,$20,$20,$20
	.byte	$20,$20,$20,$20,$20,$00
L3563:
	.byte	$4E,$6F,$20,$46,$72,$65,$65,$20,$50,$75,$6D,$70,$20,$4D,$6F,$64
	.byte	$65,$20,$79,$65,$74,$00
L39C7:
	.byte	$47,$61,$6D,$65,$20,$51,$75,$65,$73,$74,$20,$4D,$6F,$64,$65,$00
L39D1:
	.byte	$46,$72,$65,$65,$20,$50,$75,$6D,$70,$20,$4D,$6F,$64,$65,$00
L39B2:
	.byte	$47,$2E,$41,$2E,$53,$2E,$00
L3A25:
	.byte	$2E,$30,$30,$20,$47,$00
L3A67:
	.byte	$4E,$4F,$4E,$45,$00
L3A30:
	.byte	$3E,$3E,$3E,$00

.segment	"BSS"

_bankLevel:
	.res	1,$00
_bankBuffer:
	.res	10,$00
.segment	"ZEROPAGE"
_pad1_zapper:
	.res	1,$00
_zapper_ready:
	.res	1,$00
_hit_detected:
	.res	1,$00
_scroll_y:
	.res	2,$00
_scrolled_past_once:
	.res	1,$00
_scroll_page:
	.res	1,$00
_scroll_page_end:
	.res	1,$00
_stop_scrolling:
	.res	1,$00
_option:
	.res	1,$00
_cost5:
	.res	1,$00
_cost4:
	.res	1,$00
_cost3:
	.res	1,$00
_cost2:
	.res	1,$00
_cost1:
	.res	1,$00
_cost5_changed:
	.res	1,$00
_cost4_changed:
	.res	1,$00
_cost3_changed:
	.res	1,$00
_cost2_changed:
	.res	1,$00
_cost1_changed:
	.res	1,$00
_gas5:
	.res	1,$00
_gas4:
	.res	1,$00
_gas3:
	.res	1,$00
_gas2:
	.res	1,$00
_gas1:
	.res	1,$00
_gas5_changed:
	.res	1,$00
_gas4_changed:
	.res	1,$00
_gas3_changed:
	.res	1,$00
_gas2_changed:
	.res	1,$00
_gas1_changed:
	.res	1,$00
_alien_level:
	.res	1,$00
_gas_goal:
	.res	2,$00
_gas_goal_hundreds:
	.res	2,$00
_gas_speed:
	.res	2,$00
_cost_speed:
	.res	2,$00
_gas_pumped:
	.res	2,$00
_pad1:
	.res	1,$00
_pad1_new:
	.res	1,$00
_trigger_pulled:
	.res	1,$00
_trigger_clicked:
	.res	1,$00
_debug_trigger_hit:
	.res	1,$00
_debug_trigger_miss:
	.res	1,$00
_started_pumping:
	.res	1,$00
_sprite_cost:
	.res	1,$00
_cost_sprite:
	.res	1,$00
_game_mode:
	.res	1,$00
_game_level:
	.res	1,$00
_levels_complete:
	.res	1,$00
_perfect_levels:
	.res	1,$00
_pointer:
	.res	2,$00
_temp1:
	.res	1,$00
_temp2:
	.res	1,$00
_tempint:
	.res	2,$00
_bird_x:
	.res	1,$00
_bird_y:
	.res	1,$00
_address:
	.res	2,$00
_x:
	.res	1,$00
_y:
	.res	1,$00
_num_holder:
	.res	1,$00
_index2:
	.res	1,$00
_largeindex:
	.res	2,$00
_text_rendered:
	.res	1,$00
_text_length:
	.res	1,$00
_text_row:
	.res	1,$00
_text_col:
	.res	1,$00
_text_x_start:
	.res	1,$00
_text_y_start:
	.res	1,$00
_moveframes:
	.res	1,$00
.segment	"XRAM"
_wram_array:
	.res	8192,$00

; ---------------------------------------------------------------
; void __near__ banked_call (unsigned char, __near__ __near__ function returning void *)
; ---------------------------------------------------------------

.segment	"CODE"

.proc	_banked_call: near

.segment	"CODE"

;
; void banked_call(unsigned char bankId, void (*method)(void)) {
;
	jsr     pushax
;
; bank_push(bankId);
;
	ldy     #$02
	lda     (sp),y
	jsr     _bank_push
;
; (*method)();
;
	ldy     #$01
	lda     (sp),y
	tax
	dey
	lda     (sp),y
	jsr     callax
;
; bank_pop();
;
	jsr     _bank_pop
;
; }
;
	jmp     incsp3

.endproc

; ---------------------------------------------------------------
; void __near__ bank_push (unsigned char)
; ---------------------------------------------------------------

.segment	"CODE"

.proc	_bank_push: near

.segment	"CODE"

;
; void bank_push(unsigned char bankId) {
;
	jsr     pusha
;
; bankBuffer[bankLevel] = get_prg_bank();
;
	lda     #<(_bankBuffer)
	ldx     #>(_bankBuffer)
	clc
	adc     _bankLevel
	bcc     L000B
	inx
L000B:	jsr     pushax
	jsr     _get_prg_bank
	ldy     #$00
	jsr     staspidx
;
; ++bankLevel;
;
	inc     _bankLevel
;
; set_prg_bank(bankId);
;
	ldy     #$00
	lda     (sp),y
	jsr     _set_prg_bank
;
; }
;
	jmp     incsp1

.endproc

; ---------------------------------------------------------------
; void __near__ bank_pop (void)
; ---------------------------------------------------------------

.segment	"CODE"

.proc	_bank_pop: near

.segment	"CODE"

;
; if (bankLevel != 0) {
;
	lda     _bankLevel
	beq     L0011
;
; --bankLevel;
;
	dec     _bankLevel
;
; set_prg_bank(bankBuffer[bankLevel]);
;
	ldy     _bankLevel
	lda     _bankBuffer,y
	jmp     _set_prg_bank
;
; }
;
L0011:	rts

.endproc

; ---------------------------------------------------------------
; void __near__ read_input (void)
; ---------------------------------------------------------------

.segment	"CODE"

.proc	_read_input: near

.segment	"CODE"

;
; hit_detected = 0;
;
	lda     #$00
	sta     _hit_detected
;
; pad1 = pad_poll(0);     // read the first controller
;
	jsr     _pad_poll
	sta     _pad1
;
; pad1_new = get_pad_new(0); // newly pressed button. do pad_poll first
;
	lda     #$00
	jsr     _get_pad_new
	sta     _pad1_new
;
; zapper_ready = pad1_zapper ^ 1; // XOR last frame, make sure not held down still
;
	lda     _pad1_zapper
	eor     #$01
	sta     _zapper_ready
;
; pad1_zapper = zap_shoot(1);   // controller slot 2
;
	lda     #$01
	jsr     _zap_shoot
	sta     _pad1_zapper
;
; trigger_pulled = (pad1 & PAD_B) || (pad1 & PAD_A) || zap_shoot(1);                // controller slot 1 zapper
;
	lda     _pad1
	and     #$40
	bne     L4890
	lda     _pad1
	and     #$80
	bne     L4890
	lda     #$01
	jsr     _zap_shoot
	tax
	beq     L4891
L4890:	lda     #$01
L4891:	sta     _trigger_pulled
;
; trigger_clicked = (pad1_new & PAD_A) || (pad1_new & PAD_B) || ((pad1_zapper) && (zapper_ready)); // needs to check last frame for blank
;
	lda     _pad1_new
	and     #$80
	bne     L4897
	lda     _pad1_new
	and     #$40
	bne     L4897
	lda     _pad1_zapper
	beq     L4898
	lda     _zapper_ready
	beq     L4898
L4897:	lda     #$01
L4898:	sta     _trigger_clicked
;
; if ((pad1_zapper) && (zapper_ready))
;
	lda     _pad1_zapper
	beq     L4819
	lda     _zapper_ready
	beq     L4819
;
; hit_detected = zap_read(1);
;
	lda     #$01
	jsr     _zap_read
	sta     _hit_detected
;
; if (debug_mode && hit_detected == 0)
;
L4819:	lda     _debug_mode
	beq     L4824
	lda     _hit_detected
	beq     L489C
L4824:	rts
;
; hit_detected = (pad1 & PAD_A);
;
L489C:	lda     _pad1
	and     #$80
	sta     _hit_detected
;
; }
;
	rts

.endproc

; ---------------------------------------------------------------
; void __near__ typewriter (void)
; ---------------------------------------------------------------

.segment	"CODE"

.proc	_typewriter: near

.segment	"CODE"

;
; if (text_rendered != text_length)
;
	lda     _text_length
	cmp     _text_rendered
	bne     L48A7
;
; }
;
	rts
;
; if (pointer[text_rendered] == '\n')
;
L48A7:	lda     _pointer
	ldx     _pointer+1
	ldy     _text_rendered
	sta     ptr1
	stx     ptr1+1
	lda     (ptr1),y
	cmp     #$0A
;
; else if (pointer[text_rendered] == '\t')
;
	beq     L48A6
	lda     _pointer
	ldx     _pointer+1
	ldy     _text_rendered
	sta     ptr1
	stx     ptr1+1
	lda     (ptr1),y
	cmp     #$09
	bne     L4871
;
; text_col += 4;
;
	lda     #$04
	clc
	adc     _text_col
	sta     _text_col
;
; if (text_col >= 27) // wrap to next row
;
	cmp     #$1B
	bcc     L48A4
;
; else
;
	jmp     L48A6
;
; one_vram_buffer(pointer[text_rendered], NTADR_A(text_x_start + text_col, text_y_start + text_row));
;
L4871:	lda     _pointer
	ldx     _pointer+1
	ldy     _text_rendered
	sta     ptr1
	stx     ptr1+1
	lda     (ptr1),y
	jsr     pusha
	ldx     #$00
	lda     _text_y_start
	clc
	adc     _text_row
	bcc     L48A0
	inx
L48A0:	jsr     shlax4
	stx     tmp1
	asl     a
	rol     tmp1
	sta     ptr1
	ldx     #$00
	lda     _text_x_start
	clc
	adc     _text_col
	bcc     L48A1
	inx
L48A1:	ora     ptr1
	pha
	txa
	ora     tmp1
	tax
	pla
	pha
	txa
	ora     #$20
	tax
	pla
	jsr     _one_vram_buffer
;
; delay(1);
;
	lda     #$01
	jsr     _delay
;
; ++text_col;
;
	inc     _text_col
;
; if (text_col == 27) // wrap to next row
;
	lda     _text_col
	cmp     #$1B
	bne     L48A4
;
; ++text_row;
;
L48A6:	inc     _text_row
;
; text_col = 0;
;
	lda     #$00
	sta     _text_col
;
; ++text_rendered;
;
L48A4:	inc     _text_rendered
;
; }
;
	rts

.endproc

; ---------------------------------------------------------------
; void __near__ reset_text_values (void)
; ---------------------------------------------------------------

.segment	"CODE"

.proc	_reset_text_values: near

.segment	"CODE"

;
; text_rendered = 0;
;
	lda     #$00
	sta     _text_rendered
;
; text_row = 0;
;
	sta     _text_row
;
; text_col = 0;
;
	sta     _text_col
;
; }
;
	rts

.endproc

; ---------------------------------------------------------------
; void __near__ gas_level_init (void)
; ---------------------------------------------------------------

.segment	"CODE"

.proc	_gas_level_init: near

.segment	"CODE"

;
; ppu_off();  // screen off
;
	jsr     _ppu_off
;
; oam_clear(); // clear all sprites
;
	jsr     _oam_clear
;
; pal_col(0, 0x21);
;
	lda     #$00
	jsr     pusha
	lda     #$21
	jsr     _pal_col
;
; pal_bg(gaspump_palette);
;
	lda     #<(_gaspump_palette)
	ldx     #>(_gaspump_palette)
	jsr     _pal_bg
;
; bird_x = 0;
;
	lda     #$00
	sta     _bird_x
;
; set_chr_bank_0(GASPUMP_CHR_0);
;
	jsr     _set_chr_bank_0
;
; set_chr_bank_1(GASPUMP_CHR_1);
;
	lda     #$01
	jsr     _set_chr_bank_1
;
; scroll(0, 0); // reset scrolling
;
	jsr     push0
	jsr     _scroll
;
; index = 0;
;
	lda     #$00
	sta     _index
;
; vram_adr(NAMETABLE_A); // Nametable A;
;
	ldx     #$20
	jsr     _vram_adr
;
; vram_unrle(LEVEL_1_PUMP);
;
	lda     #<(_LEVEL_1_PUMP)
	ldx     #>(_LEVEL_1_PUMP)
	jsr     _vram_unrle
;
; ppu_on_all(); // turn on screen
;
	jsr     _ppu_on_all
;
; pal_fade_to(0, 4);
;
	lda     #$00
	jsr     pusha
	lda     #$04
	jsr     _pal_fade_to
;
; wait_a_little();
;
	jsr     _wait_a_little
;
; game_mode = MODE_GAME;
;
	lda     #$01
	sta     _game_mode
;
; started_pumping = 0;
;
	lda     #$00
	sta     _started_pumping
;
; }
;
	rts

.endproc

; ---------------------------------------------------------------
; void __near__ draw_talking_time (void)
; ---------------------------------------------------------------

.segment	"CODE"

.proc	_draw_talking_time: near

.segment	"CODE"

;
; temp1 = 0x2044; // vram addr for start of box
;
	lda     #$44
	sta     _temp1
;
; for (temp2 = 0; temp2 < 6; ++temp2)
;
	lda     #$00
	sta     _temp2
L48A8:	lda     _temp2
	cmp     #$06
	bcs     L47E1
;
; ppu_wait_nmi();
;
	jsr     _ppu_wait_nmi
;
; vram_adr(temp1); // Nametable A starting block
;
	lda     _temp1
	ldx     #$00
	jsr     _vram_adr
;
; for (index = 0; index < 9; ++index)
;
	lda     #$00
	sta     _index
L48A9:	lda     _index
	cmp     #$09
	bcs     L47EC
;
; vram_put(0x00);
;
	lda     #$00
	jsr     _vram_put
;
; for (index = 0; index < 9; ++index)
;
	inc     _index
	jmp     L48A9
;
; flush_vram_update2();
;
L47EC:	jsr     _flush_vram_update2
;
; temp1 += 16;
;
	lda     #$10
	clc
	adc     _temp1
	sta     _temp1
;
; for (temp2 = 0; temp2 < 6; ++temp2)
;
	inc     _temp2
	jmp     L48A8
;
; flush_vram_update2();
;
L47E1:	jsr     _flush_vram_update2
;
; talking_time = 1;
;
	lda     #$01
	sta     _talking_time
;
; }
;
	rts

.endproc

; ---------------------------------------------------------------
; void __near__ draw_talking_time_background (void)
; ---------------------------------------------------------------

.segment	"CODE"

.proc	_draw_talking_time_background: near

.segment	"CODE"

;
; set_chr_bank_0(TALKING_TIME_CHR_0);
;
	lda     #$02
	jsr     _set_chr_bank_0
;
; set_chr_bank_1(TALKING_TIME_CHR_0);
;
	lda     #$02
	jsr     _set_chr_bank_1
;
; pal_bg(talking_time_palette);
;
	lda     #<(_talking_time_palette)
	ldx     #>(_talking_time_palette)
	jsr     _pal_bg
;
; vram_adr(NAMETABLE_A);
;
	ldx     #$20
	lda     #$00
	jsr     _vram_adr
;
; vram_unrle(talkingtime_rle);
;
	lda     #<(_talkingtime_rle)
	ldx     #>(_talkingtime_rle)
	jmp     _vram_unrle

.endproc

; ---------------------------------------------------------------
; void __near__ draw_evaluation_time_background (void)
; ---------------------------------------------------------------

.segment	"CODE"

.proc	_draw_evaluation_time_background: near

.segment	"CODE"

;
; set_chr_bank_0(TALKING_TIME_CHR_0);
;
	lda     #$02
	jsr     _set_chr_bank_0
;
; set_chr_bank_1(TALKING_TIME_CHR_0);
;
	lda     #$02
	jsr     _set_chr_bank_1
;
; pal_bg(talking_time_palette);
;
	lda     #<(_talking_time_palette)
	ldx     #>(_talking_time_palette)
	jsr     _pal_bg
;
; vram_adr(NAMETABLE_A);
;
	ldx     #$20
	lda     #$00
	jsr     _vram_adr
;
; vram_unrle(evaluation_rle);
;
	lda     #<(_evaluation_rle)
	ldx     #>(_evaluation_rle)
	jmp     _vram_unrle

.endproc

; ---------------------------------------------------------------
; void __near__ draw_talking_time_sprites (void)
; ---------------------------------------------------------------

.segment	"CODE"

.proc	_draw_talking_time_sprites: near

.segment	"CODE"

;
; oam_meta_spr(0xb0, 0xc0, BigAlsShirt);
;
	jsr     decsp2
	lda     #$B0
	ldy     #$01
	sta     (sp),y
	lda     #$C0
	dey
	sta     (sp),y
	lda     #<(_BigAlsShirt)
	ldx     #>(_BigAlsShirt)
	jmp     _oam_meta_spr

.endproc

; ---------------------------------------------------------------
; void __near__ clear_background (void)
; ---------------------------------------------------------------

.segment	"CODE"

.proc	_clear_background: near

.segment	"CODE"

;
; vram_adr(NAMETABLE_A);
;
	ldx     #$20
	lda     #$00
	jsr     _vram_adr
;
; for (tempint = 0; tempint < 1024; ++tempint)
;
	lda     #$00
	sta     _tempint
	sta     _tempint+1
L47C0:	lda     _tempint
	cmp     #$00
	lda     _tempint+1
	sbc     #$04
	bvc     L47C7
	eor     #$80
L47C7:	bpl     L47C1
;
; vram_put(0x00);
;
	lda     #$00
	jsr     _vram_put
;
; flush_vram_update2();
;
	jsr     _flush_vram_update2
;
; for (tempint = 0; tempint < 1024; ++tempint)
;
	inc     _tempint
	bne     L47C0
	inc     _tempint+1
	jmp     L47C0
;
; }
;
L47C1:	rts

.endproc

; ---------------------------------------------------------------
; void __near__ white_background (void)
; ---------------------------------------------------------------

.segment	"CODE"

.proc	_white_background: near

.segment	"CODE"

;
; vram_adr(NAMETABLE_A);
;
	ldx     #$20
	lda     #$00
	jsr     _vram_adr
;
; for (tempint = 0; tempint < 960; ++tempint)
;
	lda     #$00
	sta     _tempint
	sta     _tempint+1
L47D0:	lda     _tempint
	cmp     #$C0
	lda     _tempint+1
	sbc     #$03
	bvc     L47D7
	eor     #$80
L47D7:	bpl     L47D1
;
; vram_put(0x00);
;
	lda     #$00
	jsr     _vram_put
;
; flush_vram_update2();
;
	jsr     _flush_vram_update2
;
; for (tempint = 0; tempint < 960; ++tempint)
;
	inc     _tempint
	bne     L47D0
	inc     _tempint+1
	jmp     L47D0
;
; }
;
L47D1:	rts

.endproc

; ---------------------------------------------------------------
; void __near__ reset_game_variables (void)
; ---------------------------------------------------------------

.segment	"CODE"

.proc	_reset_game_variables: near

.segment	"CODE"

;
; gas1 = gas2 = gas3 = gas4 = gas5 = 0;
;
	lda     #$00
	sta     _gas5
	sta     _gas4
	sta     _gas3
	sta     _gas2
	sta     _gas1
;
; cost1 = cost2 = cost3 = cost4 = cost5 = 0;
;
	sta     _cost5
	sta     _cost4
	sta     _cost3
	sta     _cost2
	sta     _cost1
;
; }
;
	rts

.endproc

; ---------------------------------------------------------------
; void __near__ wait_a_little (void)
; ---------------------------------------------------------------

.segment	"CODE"

.proc	_wait_a_little: near

.segment	"CODE"

;
; for (index = 0; index < 25; ++index)
;
	lda     #$00
	sta     _index
L48AA:	lda     _index
	cmp     #$19
	bcs     L4858
;
; ppu_wait_nmi();
;
	jsr     _ppu_wait_nmi
;
; for (index = 0; index < 25; ++index)
;
	inc     _index
	jmp     L48AA
;
; }
;
L4858:	rts

.endproc

; ---------------------------------------------------------------
; void __near__ bank_1_instructions_init (void)
; ---------------------------------------------------------------

.segment	"BANK1"

.proc	_bank_1_instructions_init: near

.segment	"BANK1"

;
; reset_text_values();
;
	jsr     _reset_text_values
;
; ppu_off();  // screen off
;
	jsr     _ppu_off
;
; oam_clear(); // clear all sprites
;
	jsr     _oam_clear
;
; clear_background();
;
	jsr     _clear_background
;
; reset_game_variables();
;
	jsr     _reset_game_variables
;
; draw_talking_time_background();
;
	jsr     _draw_talking_time_background
;
; flush_vram_update2();
;
	jsr     _flush_vram_update2
;
; text_x_start = 3;
;
	lda     #$03
	sta     _text_x_start
;
; text_y_start = 6;
;
	lda     #$06
	sta     _text_y_start
;
; switch (levels_complete)
;
	lda     _levels_complete
;
; }
;
	beq     L36A1
	cmp     #$01
	beq     L36AA
	cmp     #$02
	beq     L36B3
	jmp     L369F
;
; pointer = level_0_text;
;
L36A1:	lda     #>(_level_0_text)
	sta     _pointer+1
	lda     #<(_level_0_text)
	sta     _pointer
;
; text_length = sizeof(level_0_text);
;
	lda     #$57
	sta     _text_length
;
; gas_goal = 1;
;
	ldx     #$00
	lda     #$01
	sta     _gas_goal
	stx     _gas_goal+1
;
; break;
;
	jmp     L369F
;
; pointer = level_1_text;
;
L36AA:	lda     #>(_level_1_text)
	sta     _pointer+1
	lda     #<(_level_1_text)
	sta     _pointer
;
; text_length = sizeof(level_1_text);
;
	lda     #$64
	sta     _text_length
;
; gas_goal = 1;
;
	ldx     #$00
	lda     #$01
	sta     _gas_goal
	stx     _gas_goal+1
;
; break;
;
	jmp     L369F
;
; pointer = level_2_text;
;
L36B3:	lda     #>(_level_2_text)
	sta     _pointer+1
	lda     #<(_level_2_text)
	sta     _pointer
;
; text_length = sizeof(level_2_text);
;
	lda     #$6D
	sta     _text_length
;
; gas_goal = 1;
;
	ldx     #$00
	lda     #$01
	sta     _gas_goal
	stx     _gas_goal+1
;
; alien_level = 1;
;
	sta     _alien_level
;
; ppu_on_all(); // turn on screen
;
L369F:	jsr     _ppu_on_all
;
; game_mode = MODE_INTRO_INSTRUCTION;
;
	lda     #$05
	sta     _game_mode
;
; }
;
	rts

.endproc

; ---------------------------------------------------------------
; void __near__ bank_0_intro_scroll_init (void)
; ---------------------------------------------------------------

.segment	"BANK0"

.proc	_bank_0_intro_scroll_init: near

.segment	"BANK0"

;
; nametable_index = 0;
;
	lda     #$00
	sta     _nametable_index
	sta     _nametable_index+1
;
; scrolled_past_once = 0;
;
	sta     _scrolled_past_once
;
; stop_scrolling = 0;
;
	sta     _stop_scrolling
;
; moveframes = 0;
;
	sta     _moveframes
;
; line_counter = 0;
;
	sta     _line_counter
;
; screen_line_counter = 0;
;
	sta     _screen_line_counter
;
; scroll_page = 0;
;
	sta     _scroll_page
;
; scroll_page_end = 4; // this is for the 3 page scroll
;
	lda     #$04
	sta     _scroll_page_end
;
; cutscene_index = NAMETABLE_C;
;
	ldx     #$28
	lda     #$00
	sta     _cutscene_index
	stx     _cutscene_index+1
;
; pointer = intro_scroll_1;
;
	lda     #>(_intro_scroll_1)
	sta     _pointer+1
	lda     #<(_intro_scroll_1)
	sta     _pointer
;
; scroll(0, 0); // reset scrolling
;
	jsr     push0
	jsr     _scroll
;
; set_mirroring(MIRROR_HORIZONTAL);
;
	lda     #$03
	jsr     _set_mirroring
;
; ppu_off();  // screen off
;
	jsr     _ppu_off
;
; oam_clear(); // clear all sprites
;
	jsr     _oam_clear
;
; pal_bg(intro_cutscene_gun_palette);
;
	lda     #<(_intro_cutscene_gun_palette)
	ldx     #>(_intro_cutscene_gun_palette)
	jsr     _pal_bg
;
; clear_background();
;
	jsr     _clear_background
;
; vram_adr(NAMETABLE_A);
;
	ldx     #$20
	lda     #$00
	jsr     _vram_adr
;
; for (nametable_index = 0; nametable_index < 1024; ++nametable_index)
;
	lda     #$00
	sta     _nametable_index
	sta     _nametable_index+1
L34F4:	lda     _nametable_index
	cmp     #$00
	lda     _nametable_index+1
	sbc     #$04
	bvc     L34FB
	eor     #$80
L34FB:	asl     a
	lda     #$00
	bcc     L48AC
;
; vram_put(cutscenegun_small_arrow[nametable_index]);
;
	lda     #<(_cutscenegun_small_arrow)
	sta     ptr1
	lda     #>(_cutscenegun_small_arrow)
	clc
	adc     _nametable_index+1
	sta     ptr1+1
	ldy     _nametable_index
	lda     (ptr1),y
	jsr     _vram_put
;
; flush_vram_update2();
;
	jsr     _flush_vram_update2
;
; for (nametable_index = 0; nametable_index < 1024; ++nametable_index)
;
	inc     _nametable_index
	bne     L34F4
	inc     _nametable_index+1
	jmp     L34F4
;
; nametable_index = 0;
;
L48AC:	sta     _nametable_index
	sta     _nametable_index+1
;
; set_chr_bank_0(CUTSCENE_GUN_CHR_0);
;
	lda     #$04
	jsr     _set_chr_bank_0
;
; set_chr_bank_1(CUTSCENE_GUN_CHR_1);
;
	lda     #$05
	jsr     _set_chr_bank_1
;
; ppu_on_all(); // turn on screen
;
	jsr     _ppu_on_all
;
; pal_fade_to(0, 4);
;
	lda     #$00
	jsr     pusha
	lda     #$04
	jsr     _pal_fade_to
;
; game_mode = MODE_INTRO_SCROLL;
;
	lda     #$03
	sta     _game_mode
;
; }
;
	rts

.endproc

; ---------------------------------------------------------------
; void __near__ bank_0_title_loop (void)
; ---------------------------------------------------------------

.segment	"BANK0"

.proc	_bank_0_title_loop: near

.segment	"BANK0"

;
; ppu_wait_nmi();
;
	jsr     _ppu_wait_nmi
;
; if (option == 0)
;
	lda     _option
	bne     L3510
;
; one_vram_buffer(0x3d, NTADR_A(6, 22));
;
	lda     #$3D
	jsr     pusha
	ldx     #$22
	lda     #$C6
	jsr     _one_vram_buffer
;
; one_vram_buffer(0x00, NTADR_A(6, 24));
;
	lda     #$00
;
; else
;
	jmp     L48B4
;
; one_vram_buffer(0x00, NTADR_A(6, 22));
;
L3510:	lda     #$00
	jsr     pusha
	ldx     #$22
	lda     #$C6
	jsr     _one_vram_buffer
;
; one_vram_buffer(0x3d, NTADR_A(6, 24));
;
	lda     #$3D
L48B4:	jsr     pusha
	ldx     #$23
	lda     #$06
	jsr     _one_vram_buffer
;
; read_input();
;
	jsr     _read_input
;
; if (trigger_clicked) // if((pad2_zapper)&&(zapper_ready)){
;
	lda     _trigger_clicked
	bne     L48B5
;
; }
;
	rts
;
; oam_clear();
;
L48B5:	jsr     _oam_clear
;
; pal_col(0, 0x30); // set color to white
;
	lda     #$00
	jsr     pusha
	lda     #$30
	jsr     _pal_col
;
; ppu_wait_nmi(); // wait till the top of the next frame
;
	jsr     _ppu_wait_nmi
;
; oam_clear(); // clear the NEXT frame
;
	jsr     _oam_clear
;
; read_input();
;
	jsr     _read_input
;
; pal_col(0, 0x0f); // back to transparent
;
	lda     #$00
	jsr     pusha
	lda     #$0F
	jsr     _pal_col
;
; if (hit_detected)
;
	lda     _hit_detected
	beq     L3540
;
; if (option == 0)
;
	lda     _option
	bne     L3542
;
; wait_a_little();
;
	jsr     _wait_a_little
;
; pal_bg(fade_1);
;
	lda     #<(_fade_1)
	ldx     #>(_fade_1)
	jsr     _pal_bg
;
; for (index = 0; index < 15; ++index)
;
	lda     #$00
	sta     _index
L48AF:	lda     _index
	cmp     #$0F
	bcs     L3548
;
; ppu_wait_nmi();
;
	jsr     _ppu_wait_nmi
;
; for (index = 0; index < 15; ++index)
;
	inc     _index
	jmp     L48AF
;
; pal_bg(fade_2);
;
L3548:	lda     #<(_fade_2)
	ldx     #>(_fade_2)
	jsr     _pal_bg
;
; for (index = 0; index < 15; ++index)
;
	lda     #$00
	sta     _index
L48B0:	lda     _index
	cmp     #$0F
	bcs     L3553
;
; ppu_wait_nmi();
;
	jsr     _ppu_wait_nmi
;
; for (index = 0; index < 15; ++index)
;
	inc     _index
	jmp     L48B0
;
; pal_fade_to(4, 0);
;
L3553:	lda     #$04
	jsr     pusha
	lda     #$00
	jsr     _pal_fade_to
;
; banked_call(BANK_0, bank_0_intro_scroll_init);
;
	lda     #$00
	jsr     pusha
	lda     #<(_bank_0_intro_scroll_init)
	ldx     #>(_bank_0_intro_scroll_init)
	jmp     _banked_call
;
; multi_vram_buffer_horz("No Free Pump Mode yet", 21, NTADR_A(6, 25));
;
L3542:	jsr     decsp3
	lda     #<(L3563)
	ldy     #$01
	sta     (sp),y
	iny
	lda     #>(L3563)
	sta     (sp),y
	lda     #$15
	ldy     #$00
	sta     (sp),y
	ldx     #$23
	lda     #$26
	jmp     _multi_vram_buffer_horz
;
; if (option == 0)
;
L3540:	lda     _option
	bne     L48B1
;
; option = 1;
;
	lda     #$01
;
; else
;
	jmp     L48AE
;
; option = 0;
;
L48B1:	lda     #$00
L48AE:	sta     _option
;
; multi_vram_buffer_horz("                     ", 21, NTADR_A(6, 25));
;
	jsr     decsp3
	lda     #<(L3575)
	ldy     #$01
	sta     (sp),y
	iny
	lda     #>(L3575)
	sta     (sp),y
	lda     #$15
	ldy     #$00
	sta     (sp),y
	ldx     #$23
	lda     #$26
	jmp     _multi_vram_buffer_horz

.endproc

; ---------------------------------------------------------------
; void __near__ bank_0_intro_cutscene_init (void)
; ---------------------------------------------------------------

.segment	"BANK0"

.proc	_bank_0_intro_cutscene_init: near

.segment	"BANK0"

;
; nametable_index = 0;
;
	lda     #$00
	sta     _nametable_index
	sta     _nametable_index+1
;
; cutscene_index = 0;
;
	sta     _cutscene_index
	sta     _cutscene_index+1
;
; scrolled_past_once = 0;
;
	sta     _scrolled_past_once
;
; stop_scrolling = 0;
;
	sta     _stop_scrolling
;
; moveframes = 0;
;
	sta     _moveframes
;
; line_counter = 0;
;
	sta     _line_counter
;
; scroll_y = 0;
;
	sta     _scroll_y
	sta     _scroll_y+1
;
; scroll(0, 0); // reset scrolling
;
	jsr     push0
	jsr     _scroll
;
; set_mirroring(MIRROR_HORIZONTAL);
;
	lda     #$03
	jsr     _set_mirroring
;
; ppu_off();  // screen off
;
	jsr     _ppu_off
;
; oam_clear(); // clear all sprites
;
	jsr     _oam_clear
;
; pal_bg(intro_cutscene_palette);
;
	lda     #<(_intro_cutscene_palette)
	ldx     #>(_intro_cutscene_palette)
	jsr     _pal_bg
;
; set_chr_bank_0(CUTSCENE_CHR_0);
;
	lda     #$06
	jsr     _set_chr_bank_0
;
; set_chr_bank_1(CUTSCENE_CHR_1);
;
	lda     #$07
	jsr     _set_chr_bank_1
;
; vram_adr(NAMETABLE_A);
;
	ldx     #$20
	lda     #$00
	jsr     _vram_adr
;
; for (nametable_index = 0; nametable_index < 1024; ++nametable_index)
;
	lda     #$00
	sta     _nametable_index
	sta     _nametable_index+1
L359C:	lda     _nametable_index
	cmp     #$00
	lda     _nametable_index+1
	sbc     #$04
	bvc     L35A3
	eor     #$80
L35A3:	bpl     L359D
;
; vram_put(intro_cutscene_1[nametable_index]);
;
	lda     #<(_intro_cutscene_1)
	sta     ptr1
	lda     #>(_intro_cutscene_1)
	clc
	adc     _nametable_index+1
	sta     ptr1+1
	ldy     _nametable_index
	lda     (ptr1),y
	jsr     _vram_put
;
; flush_vram_update2();
;
	jsr     _flush_vram_update2
;
; for (nametable_index = 0; nametable_index < 1024; ++nametable_index)
;
	inc     _nametable_index
	bne     L359C
	inc     _nametable_index+1
	jmp     L359C
;
; vram_adr(NAMETABLE_C);
;
L359D:	ldx     #$28
	lda     #$00
	jsr     _vram_adr
;
; for (nametable_index = 0; nametable_index < 1024; ++nametable_index)
;
	lda     #$00
	sta     _nametable_index
	sta     _nametable_index+1
L35AC:	lda     _nametable_index
	cmp     #$00
	lda     _nametable_index+1
	sbc     #$04
	bvc     L35B3
	eor     #$80
L35B3:	bpl     L35AD
;
; vram_put(intro_cutscene_2[nametable_index]);
;
	lda     #<(_intro_cutscene_2)
	sta     ptr1
	lda     #>(_intro_cutscene_2)
	clc
	adc     _nametable_index+1
	sta     ptr1+1
	ldy     _nametable_index
	lda     (ptr1),y
	jsr     _vram_put
;
; flush_vram_update2();
;
	jsr     _flush_vram_update2
;
; for (nametable_index = 0; nametable_index < 1024; ++nametable_index)
;
	inc     _nametable_index
	bne     L35AC
	inc     _nametable_index+1
	jmp     L35AC
;
; cutscene_index = NAMETABLE_A;
;
L35AD:	ldx     #$20
	lda     #$00
	sta     _cutscene_index
	stx     _cutscene_index+1
;
; nametable_index = 0;
;
	sta     _nametable_index
	sta     _nametable_index+1
;
; ppu_on_all(); // turn on screen
;
	jsr     _ppu_on_all
;
; game_mode = MODE_INTRO_CUTSCENE;
;
	lda     #$04
	sta     _game_mode
;
; pal_fade_to(0, 4);
;
	lda     #$00
	jsr     pusha
	lda     #$04
	jmp     _pal_fade_to

.endproc

; ---------------------------------------------------------------
; void __near__ bank_0_intro_scroll_loop (void)
; ---------------------------------------------------------------

.segment	"BANK0"

.proc	_bank_0_intro_scroll_loop: near

.segment	"BANK0"

;
; ppu_wait_nmi();
;
	jsr     _ppu_wait_nmi
;
; read_input();
;
	jsr     _read_input
;
; if (trigger_pulled)
;
	lda     _trigger_pulled
	beq     L35C7
;
; ++line_counter;     // count 1 line up for each frame, so we know when we'd done 8 frames, and card draw
;
	inc     _line_counter
;
; ++screen_line_counter; // count each screen line
;
	inc     _screen_line_counter
;
; ++scroll_y;
;
	inc     _scroll_y
	bne     L35C7
	inc     _scroll_y+1
;
; if (screen_line_counter > 240)
;
L35C7:	lda     _screen_line_counter
	cmp     #$F1
	jcc     L48BA
;
; set_chr_bank_0(CUTSCENE_CHR_0);
;
	lda     #$06
	jsr     _set_chr_bank_0
;
; set_chr_bank_1(CUTSCENE_CHR_1);
;
	lda     #$07
	jsr     _set_chr_bank_1
;
; ++scroll_page;
;
	inc     _scroll_page
;
; screen_line_counter = 0;
;
	lda     #$00
	sta     _screen_line_counter
;
; nametable_index = 0;
;
	sta     _nametable_index
	sta     _nametable_index+1
;
; attribute_bytes_written = 0;
;
	sta     _attribute_bytes_written
;
; if (scroll_page == 1)
;
	lda     _scroll_page
	cmp     #$01
	bne     L48B7
;
; attribute_table_index = NAMETABLE_A_ATTR;
;
	ldx     #$23
	lda     #$C0
	sta     _attribute_table_index
	stx     _attribute_table_index+1
;
; cutscene_index = NAMETABLE_A;
;
	ldx     #$20
	lda     #$00
	sta     _cutscene_index
	stx     _cutscene_index+1
;
; pointer = intro_scroll_2;
;
	lda     #>(_intro_scroll_2)
	sta     _pointer+1
	lda     #<(_intro_scroll_2)
	sta     _pointer
;
; if (scroll_page == 2)
;
L48B7:	lda     _scroll_page
	cmp     #$02
	bne     L48B8
;
; attribute_table_index = NAMETABLE_C_ATTR;
;
	ldx     #$2B
	lda     #$C0
	sta     _attribute_table_index
	stx     _attribute_table_index+1
;
; cutscene_index = NAMETABLE_C;
;
	ldx     #$28
	lda     #$00
	sta     _cutscene_index
	stx     _cutscene_index+1
;
; pointer = intro_scroll_3;
;
	lda     #>(_intro_scroll_3)
	sta     _pointer+1
	lda     #<(_intro_scroll_3)
	sta     _pointer
;
; if (scroll_page == 3)
;
L48B8:	lda     _scroll_page
	cmp     #$03
	bne     L48B9
;
; attribute_table_index = NAMETABLE_A_ATTR;
;
	ldx     #$23
	lda     #$C0
	sta     _attribute_table_index
	stx     _attribute_table_index+1
;
; cutscene_index = NAMETABLE_A;
;
	ldx     #$20
	lda     #$00
	sta     _cutscene_index
	stx     _cutscene_index+1
;
; pointer = intro_scroll_4;
;
	lda     #>(_intro_scroll_4)
	sta     _pointer+1
	lda     #<(_intro_scroll_4)
	sta     _pointer
;
; if (scroll_page == 4)
;
L48B9:	lda     _scroll_page
	cmp     #$04
	bne     L48BA
;
; attribute_table_index = NAMETABLE_C_ATTR;
;
	ldx     #$2B
	lda     #$C0
	sta     _attribute_table_index
	stx     _attribute_table_index+1
;
; cutscene_index = NAMETABLE_C;
;
	ldx     #$28
	lda     #$00
	sta     _cutscene_index
	stx     _cutscene_index+1
;
; pointer = intro_scroll_5;
;
	lda     #>(_intro_scroll_5)
	sta     _pointer+1
	lda     #<(_intro_scroll_5)
	sta     _pointer
;
; if (scroll_page == scroll_page_end)
;
L48BA:	lda     _scroll_page_end
	cmp     _scroll_page
	bne     L48BC
;
; for (index = 0; index < 60; ++index)
;
	lda     #$00
	sta     _index
L48BB:	lda     _index
	cmp     #$3C
	bcs     L35FD
;
; ppu_wait_nmi();
;
	jsr     _ppu_wait_nmi
;
; for (index = 0; index < 60; ++index)
;
	inc     _index
	jmp     L48BB
;
; pal_fade_to(4, 0);
;
L35FD:	lda     #$04
	jsr     pusha
	lda     #$00
	jsr     _pal_fade_to
;
; bank_0_intro_cutscene_init();
;
	jmp     _bank_0_intro_cutscene_init
;
; if (line_counter == 8 && nametable_index < 1024)
;
L48BC:	lda     _line_counter
	cmp     #$08
	jne     L3609
	lda     _nametable_index
	cmp     #$00
	lda     _nametable_index+1
	sbc     #$04
	bvc     L360C
	eor     #$80
L360C:	jpl     L3609
;
; for (index = 0; index < 32; ++index)
;
	lda     #$00
	sta     _index
L48BF:	lda     _index
	cmp     #$20
	bcs     L48C0
;
; one_vram_buffer(pointer[nametable_index], cutscene_index);
;
	lda     _pointer
	clc
	adc     _nametable_index
	sta     ptr1
	lda     _pointer+1
	adc     _nametable_index+1
	sta     ptr1+1
	ldy     #$00
	lda     (ptr1),y
	jsr     pusha
	lda     _cutscene_index
	ldx     _cutscene_index+1
	jsr     _one_vram_buffer
;
; ++nametable_index;
;
	inc     _nametable_index
	bne     L361B
	inc     _nametable_index+1
;
; ++cutscene_index;
;
L361B:	inc     _cutscene_index
	bne     L361D
	inc     _cutscene_index+1
;
; for (index = 0; index < 32; ++index)
;
L361D:	inc     _index
	jmp     L48BF
;
; if (attribute_bytes_written < 64)
;
L48C0:	lda     _attribute_bytes_written
	cmp     #$40
	bcs     L48C1
;
; one_vram_buffer(pointer[960 + attribute_bytes_written], attribute_table_index);
;
	clc
	adc     #$C0
	pha
	lda     #$00
	adc     #$03
	tax
	pla
	clc
	adc     _pointer
	sta     ptr1
	txa
	adc     _pointer+1
	sta     ptr1+1
	ldy     #$00
	lda     (ptr1),y
	jsr     pusha
	lda     _attribute_table_index
	ldx     _attribute_table_index+1
	jsr     _one_vram_buffer
;
; ++attribute_bytes_written;
;
	inc     _attribute_bytes_written
;
; ++attribute_table_index;
;
	inc     _attribute_table_index
	bne     L3626
	inc     _attribute_table_index+1
;
; one_vram_buffer(pointer[960 + attribute_bytes_written], attribute_table_index);
;
L3626:	lda     _attribute_bytes_written
	clc
	adc     #$C0
	pha
	lda     #$00
	adc     #$03
	tax
	pla
	clc
	adc     _pointer
	sta     ptr1
	txa
	adc     _pointer+1
	sta     ptr1+1
	ldy     #$00
	lda     (ptr1),y
	jsr     pusha
	lda     _attribute_table_index
	ldx     _attribute_table_index+1
	jsr     _one_vram_buffer
;
; ++attribute_bytes_written;
;
	inc     _attribute_bytes_written
;
; ++attribute_table_index;
;
	inc     _attribute_table_index
	bne     L48C1
	inc     _attribute_table_index+1
;
; line_counter = 0;
;
L48C1:	lda     #$00
	sta     _line_counter
;
; if (scroll_y > 0x1df)
;
L3609:	lda     _scroll_y
	cmp     #$E0
	lda     _scroll_y+1
	sbc     #$01
	bcc     L48C2
;
; scroll_y = 0;
;
	lda     #$00
	sta     _scroll_y
	sta     _scroll_y+1
;
; if (moveframes == 0)
;
L48C2:	lda     _moveframes
	bne     L3634
;
; scroll(0, scroll_y);
;
	jsr     push0
	lda     _scroll_y
	ldx     _scroll_y+1
	jsr     _scroll
;
; read_input();
;
L3634:	jsr     _read_input
;
; if (trigger_clicked) // allow cutscene to be skipped
;
	lda     _trigger_clicked
	beq     L363A
;
; wait_a_little();
;
	jsr     _wait_a_little
;
; set_scroll_y(0);
;
	ldx     #$00
	txa
	jsr     _set_scroll_y
;
; banked_call(BANK_0, bank_0_intro_cutscene_init);
;
	lda     #$00
	jsr     pusha
	lda     #<(_bank_0_intro_cutscene_init)
	ldx     #>(_bank_0_intro_cutscene_init)
	jmp     _banked_call
;
; }
;
L363A:	rts

.endproc

; ---------------------------------------------------------------
; void __near__ bank_0_intro_cutscene_loop (void)
; ---------------------------------------------------------------

.segment	"BANK0"

.proc	_bank_0_intro_cutscene_loop: near

.segment	"BANK0"

;
; ppu_wait_nmi();
;
	jsr     _ppu_wait_nmi
;
; ++moveframes;
;
	inc     _moveframes
;
; ++line_counter;
;
	inc     _line_counter
;
; if (stop_scrolling == 0 && moveframes > 0)
;
	lda     _stop_scrolling
	jne     L48CE
	lda     _moveframes
	jeq     L48CE
;
; scroll_y += 1;
;
	inc     _scroll_y
	bne     L364C
	inc     _scroll_y+1
;
; if (scrolled_past_once == 1 && scroll_y > 0x1df)
;
L364C:	lda     _scrolled_past_once
	cmp     #$01
	bne     L48C7
	lda     _scroll_y
	cmp     #$E0
	lda     _scroll_y+1
	sbc     #$01
	bcc     L48C7
;
; stop_scrolling = 1;
;
	lda     #$01
	sta     _stop_scrolling
;
; moveframes = 0;
;
	lda     #$00
	sta     _moveframes
;
; if (line_counter == 8 && nametable_index < 1024)
;
L48C7:	lda     _line_counter
	cmp     #$08
	bne     L3655
	lda     _nametable_index
	cmp     #$00
	lda     _nametable_index+1
	sbc     #$04
	bvc     L3658
	eor     #$80
L3658:	bpl     L3655
;
; for (index = 0; index < 32; ++index)
;
	lda     #$00
	sta     _index
L48CA:	lda     _index
	cmp     #$20
	bcs     L48CB
;
; one_vram_buffer(intro_cutscene_3[nametable_index], cutscene_index);
;
	lda     #<(_intro_cutscene_3)
	sta     ptr1
	lda     #>(_intro_cutscene_3)
	clc
	adc     _nametable_index+1
	sta     ptr1+1
	ldy     _nametable_index
	lda     (ptr1),y
	jsr     pusha
	lda     _cutscene_index
	ldx     _cutscene_index+1
	jsr     _one_vram_buffer
;
; ++nametable_index;
;
	inc     _nametable_index
	bne     L3667
	inc     _nametable_index+1
;
; ++cutscene_index;
;
L3667:	inc     _cutscene_index
	bne     L3669
	inc     _cutscene_index+1
;
; for (index = 0; index < 32; ++index)
;
L3669:	inc     _index
	jmp     L48CA
;
; line_counter = 0;
;
L48CB:	lda     #$00
	sta     _line_counter
;
; if (scroll_y == 0x0ff)
;
L3655:	lda     _scroll_y+1
	bne     L366C
	lda     _scroll_y
	cmp     #$FF
	bne     L366C
;
; scrolled_past_once = 1;
;
	lda     #$01
	sta     _scrolled_past_once
;
; if (scroll_y > 0x1df)
;
L366C:	lda     _scroll_y
	cmp     #$E0
	lda     _scroll_y+1
	sbc     #$01
	lda     #$00
	bcc     L48CD
;
; scroll_y = 0;
;
	sta     _scroll_y
	sta     _scroll_y+1
;
; scroll(0, scroll_y);
;
L48CD:	jsr     push0
	lda     _scroll_y
	ldx     _scroll_y+1
	jsr     _scroll
;
; moveframes = 0;
;
	lda     #$00
	sta     _moveframes
;
; if (stop_scrolling == 1 && moveframes == 100)
;
L48CE:	lda     _stop_scrolling
	cmp     #$01
	bne     L367A
	lda     _moveframes
	cmp     #$64
	bne     L367A
;
; banked_call(BANK_1, bank_1_instructions_init);
;
	lda     #$01
	jsr     pusha
	lda     #<(_bank_1_instructions_init)
	ldx     #>(_bank_1_instructions_init)
	jsr     _banked_call
;
; read_input();
;
L367A:	jsr     _read_input
;
; if (trigger_clicked) // allow cutscene to be skipped
;
	lda     _trigger_clicked
	beq     L3682
;
; wait_a_little();
;
	jsr     _wait_a_little
;
; set_scroll_y(0);
;
	ldx     #$00
	txa
	jsr     _set_scroll_y
;
; banked_call(BANK_1, bank_1_instructions_init);
;
	lda     #$01
	jsr     pusha
	lda     #<(_bank_1_instructions_init)
	ldx     #>(_bank_1_instructions_init)
	jmp     _banked_call
;
; }
;
L3682:	rts

.endproc

; ---------------------------------------------------------------
; void __near__ bank_4_cutscene_init (void)
; ---------------------------------------------------------------

.segment	"BANK4"

.proc	_bank_4_cutscene_init: near

.segment	"BANK4"

;
; ppu_off();  // screen off
;
	jsr     _ppu_off
;
; oam_clear(); // clear all sprites
;
	jsr     _oam_clear
;
; set_chr_bank_0(CUTSCENE_CHR_0);
;
	lda     #$06
	jsr     _set_chr_bank_0
;
; set_chr_bank_1(CUTSCENE_CHR_1);
;
	lda     #$07
	jsr     _set_chr_bank_1
;
; scroll(0, 0); // reset scrolling
;
	jsr     push0
	jsr     _scroll
;
; index = 0;
;
	lda     #$00
	sta     _index
;
; vram_adr(NAMETABLE_A); // Nametable A;
;
	ldx     #$20
	jsr     _vram_adr
;
; for(largeindex = 0; largeindex < 1024; ++largeindex){
;
	lda     #$00
	sta     _largeindex
	sta     _largeindex+1
L46F3:	lda     _largeindex
	cmp     #$00
	lda     _largeindex+1
	sbc     #$04
	bvc     L46FA
	eor     #$80
L46FA:	bpl     L46F4
;
; vram_put(abduction_cutscene[largeindex]); //todo fix this
;
	lda     #<(_abduction_cutscene)
	sta     ptr1
	lda     #>(_abduction_cutscene)
	clc
	adc     _largeindex+1
	sta     ptr1+1
	ldy     _largeindex
	lda     (ptr1),y
	jsr     _vram_put
;
; ++index;
;
	inc     _index
;
; if(index > 40) { //don't put too much in the vram_buffer
;
	lda     _index
	cmp     #$29
	bcc     L46F5
;
; flush_vram_update2();
;
	jsr     _flush_vram_update2
;
; index = 0;
;
	lda     #$00
	sta     _index
;
; for(largeindex = 0; largeindex < 1024; ++largeindex){
;
L46F5:	inc     _largeindex
	bne     L46F3
	inc     _largeindex+1
	jmp     L46F3
;
; ppu_on_all();
;
L46F4:	jsr     _ppu_on_all
;
; pal_fade_to(0, 4);
;
	lda     #$00
	jsr     pusha
	lda     #$04
	jsr     _pal_fade_to
;
; wait_a_little();
;
	jsr     _wait_a_little
;
; game_mode = MODE_ABDUCTION_CUTSCENE;
;
	lda     #$07
	sta     _game_mode
;
; started_pumping = 0;
;
	lda     #$00
	sta     _started_pumping
;
; moveframes = 0;
;
	sta     _moveframes
;
; }
;
	rts

.endproc

; ---------------------------------------------------------------
; void __near__ bank_1_instructions_loop (void)
; ---------------------------------------------------------------

.segment	"BANK1"

.proc	_bank_1_instructions_loop: near

.segment	"BANK1"

;
; ppu_wait_nmi();
;
	jsr     _ppu_wait_nmi
;
; ++moveframes;
;
	inc     _moveframes
;
; if (text_row < 6)
;
	lda     _text_row
	cmp     #$06
	bcs     L48D1
;
; typewriter();
;
	jsr     _typewriter
;
; if (moveframes > 60)
;
L48D1:	lda     _moveframes
	cmp     #$3D
	bcc     L36C7
;
; moveframes = 0;
;
	lda     #$00
	sta     _moveframes
;
; oam_clear(); // clear all sprites
;
L36C7:	jsr     _oam_clear
;
; oam_meta_spr(0xb0, 0xc8, BigAlsShirt);
;
	jsr     decsp2
	lda     #$B0
	ldy     #$01
	sta     (sp),y
	lda     #$C8
	dey
	sta     (sp),y
	lda     #<(_BigAlsShirt)
	ldx     #>(_BigAlsShirt)
	jsr     _oam_meta_spr
;
; oam_meta_spr(0xc0, 0xa8, BigAlsEyes);
;
	jsr     decsp2
	lda     #$C0
	ldy     #$01
	sta     (sp),y
	lda     #$A8
	dey
	sta     (sp),y
	lda     #<(_BigAlsEyes)
	ldx     #>(_BigAlsEyes)
	jsr     _oam_meta_spr
;
; if (moveframes >= 0 && moveframes < 30)
;
	lda     _moveframes
	cmp     #$1E
	bcs     L48D3
;
; oam_meta_spr(0xb8, 0xbf, BigAlTalkClosedMouth);
;
	jsr     decsp2
	lda     #$B8
	ldy     #$01
	sta     (sp),y
	lda     #$BF
	dey
	sta     (sp),y
	lda     #<(_BigAlTalkClosedMouth)
	ldx     #>(_BigAlTalkClosedMouth)
	jsr     _oam_meta_spr
;
; if (moveframes >= 30 && moveframes < 61)
;
L48D3:	lda     _moveframes
	cmp     #$1E
	bcc     L36DC
	cmp     #$3D
	bcs     L36DC
;
; oam_meta_spr(0xb8, 0xbf, BigAlTalkMidMouth);
;
	jsr     decsp2
	lda     #$B8
	ldy     #$01
	sta     (sp),y
	lda     #$BF
	dey
	sta     (sp),y
	lda     #<(_BigAlTalkMidMouth)
	ldx     #>(_BigAlTalkMidMouth)
	jsr     _oam_meta_spr
;
; read_input();
;
L36DC:	jsr     _read_input
;
; if (trigger_clicked)
;
	lda     _trigger_clicked
	beq     L36E5
;
; pal_fade_to(4, 0);
;
	lda     #$04
	jsr     pusha
	lda     #$00
	jsr     _pal_fade_to
;
; wait_a_little();
;
	jsr     _wait_a_little
;
; gas_level_init();
;
	jmp     _gas_level_init
;
; }
;
L36E5:	rts

.endproc

; ---------------------------------------------------------------
; void __near__ bank_1_title_init (void)
; ---------------------------------------------------------------

.segment	"BANK1"

.proc	_bank_1_title_init: near

.segment	"BANK1"

;
; ppu_off();  // screen off
;
	jsr     _ppu_off
;
; oam_clear(); // clear all sprites
;
	jsr     _oam_clear
;
; pal_bg(intro_cutscene_palette);
;
	lda     #<(_intro_cutscene_palette)
	ldx     #>(_intro_cutscene_palette)
	jsr     _pal_bg
;
; set_chr_bank_0(CUTSCENE_CHR_0);
;
	lda     #$06
	jsr     _set_chr_bank_0
;
; set_chr_bank_1(CUTSCENE_CHR_0);
;
	lda     #$06
	jsr     _set_chr_bank_1
;
; vram_adr(NAMETABLE_A);
;
	ldx     #$20
	lda     #$00
	jsr     _vram_adr
;
; vram_unrle(title_screen_rle);
;
	lda     #<(_title_screen_rle)
	ldx     #>(_title_screen_rle)
	jsr     _vram_unrle
;
; multi_vram_buffer_horz("G.A.S.", 6, NTADR_A(12, 4));
;
	jsr     decsp3
	lda     #<(L39B2)
	ldy     #$01
	sta     (sp),y
	iny
	lda     #>(L39B2)
	sta     (sp),y
	lda     #$06
	ldy     #$00
	sta     (sp),y
	ldx     #$20
	lda     #$8C
	jsr     _multi_vram_buffer_horz
;
; multi_vram_buffer_horz("Gas Attendant Simulator", 23, NTADR_A(5, 6));
;
	jsr     decsp3
	lda     #<(L39BC)
	ldy     #$01
	sta     (sp),y
	iny
	lda     #>(L39BC)
	sta     (sp),y
	lda     #$17
	ldy     #$00
	sta     (sp),y
	ldx     #$20
	lda     #$C5
	jsr     _multi_vram_buffer_horz
;
; flush_vram_update2();
;
	jsr     _flush_vram_update2
;
; multi_vram_buffer_horz("Game Quest Mode", 15, NTADR_A(8, 22));
;
	jsr     decsp3
	lda     #<(L39C7)
	ldy     #$01
	sta     (sp),y
	iny
	lda     #>(L39C7)
	sta     (sp),y
	lda     #$0F
	ldy     #$00
	sta     (sp),y
	ldx     #$22
	lda     #$C8
	jsr     _multi_vram_buffer_horz
;
; multi_vram_buffer_horz("Free Pump Mode", 14, NTADR_A(8, 24));
;
	jsr     decsp3
	lda     #<(L39D1)
	ldy     #$01
	sta     (sp),y
	iny
	lda     #>(L39D1)
	sta     (sp),y
	lda     #$0E
	ldy     #$00
	sta     (sp),y
	ldx     #$23
	lda     #$08
	jsr     _multi_vram_buffer_horz
;
; flush_vram_update2();
;
	jsr     _flush_vram_update2
;
; ppu_on_all(); // turn on screen
;
	jsr     _ppu_on_all
;
; game_mode = MODE_TITLE;
;
	lda     #$00
	sta     _game_mode
;
; game_level = START_OF_GAME;
;
	sta     _game_level
;
; option = 0;
;
	sta     _option
;
; levels_complete = 0;
;
	sta     _levels_complete
;
; perfect_levels = 0;
;
	sta     _perfect_levels
;
; reset_game_variables();
;
	jmp     _reset_game_variables

.endproc

; ---------------------------------------------------------------
; void __near__ bank_2_init_level_one_end (void)
; ---------------------------------------------------------------

.segment	"BANK2"

.proc	_bank_2_init_level_one_end: near

.segment	"BANK2"

;
; ppu_off();  // screen off
;
	jsr     _ppu_off
;
; oam_clear(); // clear all sprites
;
	jsr     _oam_clear
;
; clear_background();
;
	jsr     _clear_background
;
; gas_goal_hundreds = 0;
;
	lda     #$00
	sta     _gas_goal_hundreds
	sta     _gas_goal_hundreds+1
;
; draw_evaluation_time_background();
;
	jsr     _draw_evaluation_time_background
;
; gas_pumped = 0;
;
	ldx     #$00
	txa
	sta     _gas_pumped
	sta     _gas_pumped+1
;
; for (index = 0; index < gas3; ++index)
;
	sta     _index
L48D8:	lda     _index
	cmp     _gas3
	txa
	sbc     #$00
	bcs     L48D9
;
; gas_pumped += 100;
;
	lda     #$64
	clc
	adc     _gas_pumped
	sta     _gas_pumped
	bcc     L3A02
	inc     _gas_pumped+1
;
; for (index = 0; index < gas3; ++index)
;
L3A02:	inc     _index
	jmp     L48D8
;
; for (index = 0; index < gas2; ++index)
;
L48D9:	lda     #$00
	sta     _index
L48DA:	lda     _index
	cmp     _gas2
	txa
	sbc     #$00
	bcs     L48DB
;
; gas_pumped += 10;
;
	lda     #$0A
	clc
	adc     _gas_pumped
	sta     _gas_pumped
	bcc     L3A0D
	inc     _gas_pumped+1
;
; for (index = 0; index < gas2; ++index)
;
L3A0D:	inc     _index
	jmp     L48DA
;
; gas_pumped += gas1;
;
L48DB:	lda     _gas1
	clc
	adc     _gas_pumped
	sta     _gas_pumped
	lda     #$00
	adc     _gas_pumped+1
	sta     _gas_pumped+1
;
; for (index = 0; index < gas_goal; ++index)
;
	lda     #$00
	sta     _index
L48DC:	lda     _index
	cmp     _gas_goal
	txa
	sbc     _gas_goal+1
	bcs     L3A11
;
; gas_goal_hundreds += 100;
;
	lda     #$64
	clc
	adc     _gas_goal_hundreds
	sta     _gas_goal_hundreds
	bcc     L3A1A
	inc     _gas_goal_hundreds+1
;
; for (index = 0; index < gas_goal; ++index)
;
L3A1A:	inc     _index
	jmp     L48DC
;
; one_vram_buffer(gas_goal + 48, NTADR_A(21, 2));
;
L3A11:	lda     _gas_goal
	clc
	adc     #$30
	jsr     pusha
	ldx     #$20
	lda     #$55
	jsr     _one_vram_buffer
;
; multi_vram_buffer_horz(".00 G", 5, NTADR_A(22, 2));
;
	jsr     decsp3
	lda     #<(L3A25)
	ldy     #$01
	sta     (sp),y
	iny
	lda     #>(L3A25)
	sta     (sp),y
	lda     #$05
	ldy     #$00
	sta     (sp),y
	ldx     #$20
	lda     #$56
	jsr     _multi_vram_buffer_horz
;
; flush_vram_update2();
;
	jsr     _flush_vram_update2
;
; multi_vram_buffer_horz(">>>", 3, NTADR_A(21, 6));
;
	jsr     decsp3
	lda     #<(L3A30)
	ldy     #$01
	sta     (sp),y
	iny
	lda     #>(L3A30)
	sta     (sp),y
	lda     #$03
	ldy     #$00
	sta     (sp),y
	ldx     #$20
	lda     #$D5
	jsr     _multi_vram_buffer_horz
;
; flush_vram_update2();
;
	jsr     _flush_vram_update2
;
; one_vram_buffer(gas3 + 48, NTADR_A(21, 8));
;
	lda     _gas3
	clc
	adc     #$30
	jsr     pusha
	ldx     #$21
	lda     #$15
	jsr     _one_vram_buffer
;
; one_vram_buffer('.', NTADR_A(22, 8));
;
	lda     #$2E
	jsr     pusha
	ldx     #$21
	lda     #$16
	jsr     _one_vram_buffer
;
; one_vram_buffer(gas2 + 48, NTADR_A(23, 8));
;
	lda     _gas2
	clc
	adc     #$30
	jsr     pusha
	ldx     #$21
	lda     #$17
	jsr     _one_vram_buffer
;
; one_vram_buffer(gas1 + 48, NTADR_A(24, 8));
;
	lda     _gas1
	clc
	adc     #$30
	jsr     pusha
	ldx     #$21
	lda     #$18
	jsr     _one_vram_buffer
;
; one_vram_buffer('G', NTADR_A(26, 8));
;
	lda     #$47
	jsr     pusha
	ldx     #$21
	lda     #$1A
	jsr     _one_vram_buffer
;
; flush_vram_update2();
;
	jsr     _flush_vram_update2
;
; multi_vram_buffer_horz("NONE", 4, NTADR_A(21, 10));
;
	jsr     decsp3
	lda     #<(L3A67)
	ldy     #$01
	sta     (sp),y
	iny
	lda     #>(L3A67)
	sta     (sp),y
	lda     #$04
	ldy     #$00
	sta     (sp),y
	ldx     #$21
	lda     #$55
	jsr     _multi_vram_buffer_horz
;
; flush_vram_update2();
;
	jsr     _flush_vram_update2
;
; text_x_start = 2;
;
	lda     #$02
	sta     _text_x_start
;
; text_y_start = 18;
;
	lda     #$12
	sta     _text_y_start
;
; reset_text_values();
;
	jsr     _reset_text_values
;
; if (gas_pumped > gas_goal_hundreds + 5)
;
	lda     _gas_pumped
	ldx     _gas_pumped+1
	jsr     pushax
	lda     _gas_goal_hundreds
	ldx     _gas_goal_hundreds+1
	clc
	adc     #$05
	bcc     L3A78
	inx
L3A78:	jsr     tosicmp
	bcc     L3A76
	beq     L3A76
;
; pointer = level_0_max;
;
	lda     #>(_level_0_max)
	sta     _pointer+1
	lda     #<(_level_0_max)
	sta     _pointer
;
; text_length = sizeof(level_0_max);
;
	lda     #$13
;
; else if (gas_pumped >= gas_goal_hundreds - 5)
;
	jmp     L48D7
L3A76:	lda     _gas_pumped
	ldx     _gas_pumped+1
	jsr     pushax
	lda     _gas_goal_hundreds
	ldx     _gas_goal_hundreds+1
	sec
	sbc     #$05
	bcs     L3A81
	dex
L3A81:	jsr     tosicmp
	bcc     L3A7F
;
; ++levels_complete;
;
	inc     _levels_complete
;
; pointer = level_0_good;
;
	lda     #>(_level_0_good)
	sta     _pointer+1
	lda     #<(_level_0_good)
	sta     _pointer
;
; text_length = sizeof(level_0_good);
;
	lda     #$1F
;
; else if (gas_pumped >= gas_goal_hundreds - 100)
;
	jmp     L48D7
L3A7F:	lda     _gas_pumped
	ldx     _gas_pumped+1
	jsr     pushax
	lda     _gas_goal_hundreds
	ldx     _gas_goal_hundreds+1
	sec
	sbc     #$64
	bcs     L3A8B
	dex
L3A8B:	jsr     tosicmp
	bcc     L3A89
;
; pointer = level_0_ok;
;
	lda     #>(_level_0_ok)
	sta     _pointer+1
	lda     #<(_level_0_ok)
	sta     _pointer
;
; text_length = sizeof(level_0_ok);
;
	lda     #$18
;
; else
;
	jmp     L48D7
;
; pointer = level_0_bad;
;
L3A89:	lda     #>(_level_0_bad)
	sta     _pointer+1
	lda     #<(_level_0_bad)
	sta     _pointer
;
; text_length = sizeof(level_0_bad);
;
	lda     #$25
L48D7:	sta     _text_length
;
; ppu_on_all(); // turn on screen
;
	jsr     _ppu_on_all
;
; game_mode = MODE_EVALUATION_TIME;
;
	lda     #$06
	sta     _game_mode
;
; game_level = LEVEL_ONE_COMPLETE;
;
	lda     #$01
	sta     _game_level
;
; }
;
	rts

.endproc

; ---------------------------------------------------------------
; void __near__ bank_2_evaluation_loop (void)
; ---------------------------------------------------------------

.segment	"BANK2"

.proc	_bank_2_evaluation_loop: near

.segment	"BANK2"

;
; ppu_wait_nmi();
;
	jsr     _ppu_wait_nmi
;
; ++moveframes;
;
	inc     _moveframes
;
; if (moveframes > 60)
;
	lda     _moveframes
	cmp     #$3D
	bcc     L48DD
;
; moveframes = 0;
;
	lda     #$00
	sta     _moveframes
;
; if (text_row < 6)
;
L48DD:	lda     _text_row
	cmp     #$06
	bcs     L3AAE
;
; typewriter();
;
	jsr     _typewriter
;
; if (moveframes >= 0 && moveframes < 30)
;
	lda     _moveframes
	cmp     #$1E
	bcs     L48DF
;
; oam_meta_spr(0xb0, 0xaf, BigAlTalkClosedMouth);
;
	jsr     decsp2
	lda     #$B0
	ldy     #$01
	sta     (sp),y
	lda     #$AF
	dey
	sta     (sp),y
	lda     #<(_BigAlTalkClosedMouth)
	ldx     #>(_BigAlTalkClosedMouth)
	jsr     _oam_meta_spr
;
; if (moveframes >= 30 && moveframes < 61)
;
L48DF:	lda     _moveframes
	cmp     #$1E
	bcc     L3AAE
	cmp     #$3D
	bcs     L3AAE
;
; oam_meta_spr(0xb0, 0xaf, BigAlTalkMidMouth);
;
	jsr     decsp2
	lda     #$B0
	ldy     #$01
	sta     (sp),y
	lda     #$AF
	dey
	sta     (sp),y
	lda     #<(_BigAlTalkMidMouth)
	ldx     #>(_BigAlTalkMidMouth)
	jsr     _oam_meta_spr
;
; oam_clear(); // clear all sprites
;
L3AAE:	jsr     _oam_clear
;
; oam_meta_spr(0xa8, 0xb8, BigAlsShirt);
;
	jsr     decsp2
	lda     #$A8
	ldy     #$01
	sta     (sp),y
	lda     #$B8
	dey
	sta     (sp),y
	lda     #<(_BigAlsShirt)
	ldx     #>(_BigAlsShirt)
	jsr     _oam_meta_spr
;
; oam_meta_spr(0xb8, 0x98, BigAlsEyes);
;
	jsr     decsp2
	lda     #$B8
	ldy     #$01
	sta     (sp),y
	lda     #$98
	dey
	sta     (sp),y
	lda     #<(_BigAlsEyes)
	ldx     #>(_BigAlsEyes)
	jsr     _oam_meta_spr
;
; read_input();
;
	jsr     _read_input
;
; if (trigger_clicked)
;
	lda     _trigger_clicked
	beq     L3AD0
;
; for (index = 0; index < 10; ++index)
;
	lda     #$00
	sta     _index
L48E3:	lda     _index
	cmp     #$0A
	bcs     L48E4
;
; ppu_wait_nmi();
;
	jsr     _ppu_wait_nmi
;
; for (index = 0; index < 10; ++index)
;
	inc     _index
	jmp     L48E3
;
; if(alien_level == 1){
;
L48E4:	lda     _alien_level
	cmp     #$01
	bne     L3ACB
;
; banked_call(BANK_4, bank_4_cutscene_init);
;
	lda     #$04
	jsr     pusha
	lda     #<(_bank_4_cutscene_init)
	ldx     #>(_bank_4_cutscene_init)
	jmp     _banked_call
;
; banked_call(BANK_1, bank_1_instructions_init);
;
L3ACB:	lda     #$01
	jsr     pusha
	lda     #<(_bank_1_instructions_init)
	ldx     #>(_bank_1_instructions_init)
	jmp     _banked_call
;
; }
;
L3AD0:	rts

.endproc

; ---------------------------------------------------------------
; void __near__ bank_3_draw_level_one_sprites (void)
; ---------------------------------------------------------------

.segment	"BANK3"

.proc	_bank_3_draw_level_one_sprites: near

.segment	"BANK3"

;
; oam_clear();
;
	jsr     _oam_clear
;
; bird_x += 1;
;
	inc     _bird_x
;
; bird_y = 0x20;
;
	lda     #$20
	sta     _bird_y
;
; oam_meta_spr(bird_x, bird_y, Bird);
;
	jsr     decsp2
	lda     _bird_x
	ldy     #$01
	sta     (sp),y
	lda     _bird_y
	dey
	sta     (sp),y
	lda     #<(_Bird)
	ldx     #>(_Bird)
	jmp     _oam_meta_spr

.endproc

; ---------------------------------------------------------------
; void __near__ bank_3_draw_number_as_bg_tile (void)
; ---------------------------------------------------------------

.segment	"BANK3"

.proc	_bank_3_draw_number_as_bg_tile: near

.segment	"BANK3"

;
; switch (num_holder)
;
	lda     _num_holder
;
; }
;
	jeq     L3D93
	cmp     #$01
	beq     L3AE7
	cmp     #$02
	jeq     L3B33
	cmp     #$03
	jeq     L3B7F
	cmp     #$04
	jeq     L3BCB
	cmp     #$05
	jeq     L3C17
	cmp     #$06
	jeq     L3C63
	cmp     #$07
	jeq     L3CAF
	cmp     #$08
	jeq     L3CFB
	cmp     #$09
	jeq     L3D47
	rts
;
; one_vram_buffer(0xc0, NTADR_A(x, y));
;
L3AE7:	lda     #$C0
	jsr     pusha
	ldx     #$00
	lda     _y
	jsr     aslax4
	stx     tmp1
	asl     a
	rol     tmp1
	sta     ptr1
	lda     _x
	ora     ptr1
	pha
	lda     tmp1
	ora     #$20
	tax
	pla
	jsr     _one_vram_buffer
;
; one_vram_buffer(0xc1, NTADR_A(x + 1, y));
;
	lda     #$C1
	jsr     pusha
	ldx     #$00
	lda     _y
	jsr     aslax4
	stx     tmp1
	asl     a
	rol     tmp1
	sta     ptr1
	ldx     #$00
	lda     _x
	clc
	adc     #$01
	bcc     L3AF8
	inx
L3AF8:	ora     ptr1
	pha
	txa
	ora     tmp1
	tax
	pla
	pha
	txa
	ora     #$20
	tax
	pla
	jsr     _one_vram_buffer
;
; one_vram_buffer(0xd0, NTADR_A(x, y + 1));
;
	lda     #$D0
	jsr     pusha
	ldx     #$00
	lda     _y
	clc
	adc     #$01
	bcc     L3B00
	inx
L3B00:	jsr     shlax4
	stx     tmp1
	asl     a
	rol     tmp1
	sta     ptr1
	lda     _x
	ora     ptr1
	pha
	lda     tmp1
	ora     #$20
	tax
	pla
	jsr     _one_vram_buffer
;
; one_vram_buffer(0xd1, NTADR_A(x + 1, y + 1));
;
	lda     #$D1
	jsr     pusha
	ldx     #$00
	lda     _y
	clc
	adc     #$01
	bcc     L3B09
	inx
L3B09:	jsr     shlax4
	stx     tmp1
	asl     a
	rol     tmp1
	sta     ptr1
	ldx     #$00
	lda     _x
	clc
	adc     #$01
	bcc     L3B0B
	inx
L3B0B:	ora     ptr1
	pha
	txa
	ora     tmp1
	tax
	pla
	pha
	txa
	ora     #$20
	tax
	pla
	jsr     _one_vram_buffer
;
; one_vram_buffer(0xe0, NTADR_A(x, y + 2));
;
	lda     #$E0
	jsr     pusha
	ldx     #$00
	lda     _y
	clc
	adc     #$02
	bcc     L3B13
	inx
L3B13:	jsr     shlax4
	stx     tmp1
	asl     a
	rol     tmp1
	sta     ptr1
	lda     _x
	ora     ptr1
	pha
	lda     tmp1
	ora     #$20
	tax
	pla
	jsr     _one_vram_buffer
;
; one_vram_buffer(0xe1, NTADR_A(x + 1, y + 2));
;
	lda     #$E1
	jsr     pusha
	ldx     #$00
	lda     _y
	clc
	adc     #$02
	bcc     L3B1C
	inx
L3B1C:	jsr     shlax4
	stx     tmp1
	asl     a
	rol     tmp1
	sta     ptr1
	ldx     #$00
	lda     _x
	clc
	adc     #$01
	bcc     L3B1E
	inx
L3B1E:	ora     ptr1
	pha
	txa
	ora     tmp1
	tax
	pla
	pha
	txa
	ora     #$20
	tax
	pla
	jsr     _one_vram_buffer
;
; one_vram_buffer(0xf0, NTADR_A(x, y + 3));
;
	lda     #$F0
	jsr     pusha
	ldx     #$00
	lda     _y
	clc
	adc     #$03
	bcc     L3B26
	inx
L3B26:	jsr     shlax4
	stx     tmp1
	asl     a
	rol     tmp1
	sta     ptr1
	lda     _x
	ora     ptr1
	pha
	lda     tmp1
	ora     #$20
	tax
	pla
	jsr     _one_vram_buffer
;
; one_vram_buffer(0xf1, NTADR_A(x + 1, y + 3));
;
	lda     #$F1
	jsr     pusha
	ldx     #$00
	lda     _y
	clc
	adc     #$03
	bcc     L3B2F
	inx
L3B2F:	jsr     shlax4
	stx     tmp1
	asl     a
	rol     tmp1
	sta     ptr1
	ldx     #$00
	lda     _x
	clc
	adc     #$01
	bcc     L3B31
	inx
L3B31:	ora     ptr1
	pha
	txa
	ora     tmp1
	tax
	pla
	pha
	txa
	ora     #$20
	tax
	pla
	jmp     _one_vram_buffer
;
; one_vram_buffer(0xc2, NTADR_A(x, y));
;
L3B33:	lda     #$C2
	jsr     pusha
	ldx     #$00
	lda     _y
	jsr     aslax4
	stx     tmp1
	asl     a
	rol     tmp1
	sta     ptr1
	lda     _x
	ora     ptr1
	pha
	lda     tmp1
	ora     #$20
	tax
	pla
	jsr     _one_vram_buffer
;
; one_vram_buffer(0xc3, NTADR_A(x + 1, y));
;
	lda     #$C3
	jsr     pusha
	ldx     #$00
	lda     _y
	jsr     aslax4
	stx     tmp1
	asl     a
	rol     tmp1
	sta     ptr1
	ldx     #$00
	lda     _x
	clc
	adc     #$01
	bcc     L3B44
	inx
L3B44:	ora     ptr1
	pha
	txa
	ora     tmp1
	tax
	pla
	pha
	txa
	ora     #$20
	tax
	pla
	jsr     _one_vram_buffer
;
; one_vram_buffer(0xd2, NTADR_A(x, y + 1));
;
	lda     #$D2
	jsr     pusha
	ldx     #$00
	lda     _y
	clc
	adc     #$01
	bcc     L3B4C
	inx
L3B4C:	jsr     shlax4
	stx     tmp1
	asl     a
	rol     tmp1
	sta     ptr1
	lda     _x
	ora     ptr1
	pha
	lda     tmp1
	ora     #$20
	tax
	pla
	jsr     _one_vram_buffer
;
; one_vram_buffer(0xd3, NTADR_A(x + 1, y + 1));
;
	lda     #$D3
	jsr     pusha
	ldx     #$00
	lda     _y
	clc
	adc     #$01
	bcc     L3B55
	inx
L3B55:	jsr     shlax4
	stx     tmp1
	asl     a
	rol     tmp1
	sta     ptr1
	ldx     #$00
	lda     _x
	clc
	adc     #$01
	bcc     L3B57
	inx
L3B57:	ora     ptr1
	pha
	txa
	ora     tmp1
	tax
	pla
	pha
	txa
	ora     #$20
	tax
	pla
	jsr     _one_vram_buffer
;
; one_vram_buffer(0xe2, NTADR_A(x, y + 2));
;
	lda     #$E2
	jsr     pusha
	ldx     #$00
	lda     _y
	clc
	adc     #$02
	bcc     L3B5F
	inx
L3B5F:	jsr     shlax4
	stx     tmp1
	asl     a
	rol     tmp1
	sta     ptr1
	lda     _x
	ora     ptr1
	pha
	lda     tmp1
	ora     #$20
	tax
	pla
	jsr     _one_vram_buffer
;
; one_vram_buffer(0xe3, NTADR_A(x + 1, y + 2));
;
	lda     #$E3
	jsr     pusha
	ldx     #$00
	lda     _y
	clc
	adc     #$02
	bcc     L3B68
	inx
L3B68:	jsr     shlax4
	stx     tmp1
	asl     a
	rol     tmp1
	sta     ptr1
	ldx     #$00
	lda     _x
	clc
	adc     #$01
	bcc     L3B6A
	inx
L3B6A:	ora     ptr1
	pha
	txa
	ora     tmp1
	tax
	pla
	pha
	txa
	ora     #$20
	tax
	pla
	jsr     _one_vram_buffer
;
; one_vram_buffer(0xf2, NTADR_A(x, y + 3));
;
	lda     #$F2
	jsr     pusha
	ldx     #$00
	lda     _y
	clc
	adc     #$03
	bcc     L3B72
	inx
L3B72:	jsr     shlax4
	stx     tmp1
	asl     a
	rol     tmp1
	sta     ptr1
	lda     _x
	ora     ptr1
	pha
	lda     tmp1
	ora     #$20
	tax
	pla
	jsr     _one_vram_buffer
;
; one_vram_buffer(0xf3, NTADR_A(x + 1, y + 3));
;
	lda     #$F3
	jsr     pusha
	ldx     #$00
	lda     _y
	clc
	adc     #$03
	bcc     L3B7B
	inx
L3B7B:	jsr     shlax4
	stx     tmp1
	asl     a
	rol     tmp1
	sta     ptr1
	ldx     #$00
	lda     _x
	clc
	adc     #$01
	bcc     L3B7D
	inx
L3B7D:	ora     ptr1
	pha
	txa
	ora     tmp1
	tax
	pla
	pha
	txa
	ora     #$20
	tax
	pla
	jmp     _one_vram_buffer
;
; one_vram_buffer(0xc4, NTADR_A(x, y));
;
L3B7F:	lda     #$C4
	jsr     pusha
	ldx     #$00
	lda     _y
	jsr     aslax4
	stx     tmp1
	asl     a
	rol     tmp1
	sta     ptr1
	lda     _x
	ora     ptr1
	pha
	lda     tmp1
	ora     #$20
	tax
	pla
	jsr     _one_vram_buffer
;
; one_vram_buffer(0xc5, NTADR_A(x + 1, y));
;
	lda     #$C5
	jsr     pusha
	ldx     #$00
	lda     _y
	jsr     aslax4
	stx     tmp1
	asl     a
	rol     tmp1
	sta     ptr1
	ldx     #$00
	lda     _x
	clc
	adc     #$01
	bcc     L3B90
	inx
L3B90:	ora     ptr1
	pha
	txa
	ora     tmp1
	tax
	pla
	pha
	txa
	ora     #$20
	tax
	pla
	jsr     _one_vram_buffer
;
; one_vram_buffer(0xd4, NTADR_A(x, y + 1));
;
	lda     #$D4
	jsr     pusha
	ldx     #$00
	lda     _y
	clc
	adc     #$01
	bcc     L3B98
	inx
L3B98:	jsr     shlax4
	stx     tmp1
	asl     a
	rol     tmp1
	sta     ptr1
	lda     _x
	ora     ptr1
	pha
	lda     tmp1
	ora     #$20
	tax
	pla
	jsr     _one_vram_buffer
;
; one_vram_buffer(0xd5, NTADR_A(x + 1, y + 1));
;
	lda     #$D5
	jsr     pusha
	ldx     #$00
	lda     _y
	clc
	adc     #$01
	bcc     L3BA1
	inx
L3BA1:	jsr     shlax4
	stx     tmp1
	asl     a
	rol     tmp1
	sta     ptr1
	ldx     #$00
	lda     _x
	clc
	adc     #$01
	bcc     L3BA3
	inx
L3BA3:	ora     ptr1
	pha
	txa
	ora     tmp1
	tax
	pla
	pha
	txa
	ora     #$20
	tax
	pla
	jsr     _one_vram_buffer
;
; one_vram_buffer(0xe4, NTADR_A(x, y + 2));
;
	lda     #$E4
	jsr     pusha
	ldx     #$00
	lda     _y
	clc
	adc     #$02
	bcc     L3BAB
	inx
L3BAB:	jsr     shlax4
	stx     tmp1
	asl     a
	rol     tmp1
	sta     ptr1
	lda     _x
	ora     ptr1
	pha
	lda     tmp1
	ora     #$20
	tax
	pla
	jsr     _one_vram_buffer
;
; one_vram_buffer(0xe5, NTADR_A(x + 1, y + 2));
;
	lda     #$E5
	jsr     pusha
	ldx     #$00
	lda     _y
	clc
	adc     #$02
	bcc     L3BB4
	inx
L3BB4:	jsr     shlax4
	stx     tmp1
	asl     a
	rol     tmp1
	sta     ptr1
	ldx     #$00
	lda     _x
	clc
	adc     #$01
	bcc     L3BB6
	inx
L3BB6:	ora     ptr1
	pha
	txa
	ora     tmp1
	tax
	pla
	pha
	txa
	ora     #$20
	tax
	pla
	jsr     _one_vram_buffer
;
; one_vram_buffer(0xf4, NTADR_A(x, y + 3));
;
	lda     #$F4
	jsr     pusha
	ldx     #$00
	lda     _y
	clc
	adc     #$03
	bcc     L3BBE
	inx
L3BBE:	jsr     shlax4
	stx     tmp1
	asl     a
	rol     tmp1
	sta     ptr1
	lda     _x
	ora     ptr1
	pha
	lda     tmp1
	ora     #$20
	tax
	pla
	jsr     _one_vram_buffer
;
; one_vram_buffer(0xf5, NTADR_A(x + 1, y + 3));
;
	lda     #$F5
	jsr     pusha
	ldx     #$00
	lda     _y
	clc
	adc     #$03
	bcc     L3BC7
	inx
L3BC7:	jsr     shlax4
	stx     tmp1
	asl     a
	rol     tmp1
	sta     ptr1
	ldx     #$00
	lda     _x
	clc
	adc     #$01
	bcc     L3BC9
	inx
L3BC9:	ora     ptr1
	pha
	txa
	ora     tmp1
	tax
	pla
	pha
	txa
	ora     #$20
	tax
	pla
	jmp     _one_vram_buffer
;
; one_vram_buffer(0xc6, NTADR_A(x, y));
;
L3BCB:	lda     #$C6
	jsr     pusha
	ldx     #$00
	lda     _y
	jsr     aslax4
	stx     tmp1
	asl     a
	rol     tmp1
	sta     ptr1
	lda     _x
	ora     ptr1
	pha
	lda     tmp1
	ora     #$20
	tax
	pla
	jsr     _one_vram_buffer
;
; one_vram_buffer(0xc7, NTADR_A(x + 1, y));
;
	lda     #$C7
	jsr     pusha
	ldx     #$00
	lda     _y
	jsr     aslax4
	stx     tmp1
	asl     a
	rol     tmp1
	sta     ptr1
	ldx     #$00
	lda     _x
	clc
	adc     #$01
	bcc     L3BDC
	inx
L3BDC:	ora     ptr1
	pha
	txa
	ora     tmp1
	tax
	pla
	pha
	txa
	ora     #$20
	tax
	pla
	jsr     _one_vram_buffer
;
; one_vram_buffer(0xd6, NTADR_A(x, y + 1));
;
	lda     #$D6
	jsr     pusha
	ldx     #$00
	lda     _y
	clc
	adc     #$01
	bcc     L3BE4
	inx
L3BE4:	jsr     shlax4
	stx     tmp1
	asl     a
	rol     tmp1
	sta     ptr1
	lda     _x
	ora     ptr1
	pha
	lda     tmp1
	ora     #$20
	tax
	pla
	jsr     _one_vram_buffer
;
; one_vram_buffer(0xd7, NTADR_A(x + 1, y + 1));
;
	lda     #$D7
	jsr     pusha
	ldx     #$00
	lda     _y
	clc
	adc     #$01
	bcc     L3BED
	inx
L3BED:	jsr     shlax4
	stx     tmp1
	asl     a
	rol     tmp1
	sta     ptr1
	ldx     #$00
	lda     _x
	clc
	adc     #$01
	bcc     L3BEF
	inx
L3BEF:	ora     ptr1
	pha
	txa
	ora     tmp1
	tax
	pla
	pha
	txa
	ora     #$20
	tax
	pla
	jsr     _one_vram_buffer
;
; one_vram_buffer(0xe6, NTADR_A(x, y + 2));
;
	lda     #$E6
	jsr     pusha
	ldx     #$00
	lda     _y
	clc
	adc     #$02
	bcc     L3BF7
	inx
L3BF7:	jsr     shlax4
	stx     tmp1
	asl     a
	rol     tmp1
	sta     ptr1
	lda     _x
	ora     ptr1
	pha
	lda     tmp1
	ora     #$20
	tax
	pla
	jsr     _one_vram_buffer
;
; one_vram_buffer(0xe7, NTADR_A(x + 1, y + 2));
;
	lda     #$E7
	jsr     pusha
	ldx     #$00
	lda     _y
	clc
	adc     #$02
	bcc     L3C00
	inx
L3C00:	jsr     shlax4
	stx     tmp1
	asl     a
	rol     tmp1
	sta     ptr1
	ldx     #$00
	lda     _x
	clc
	adc     #$01
	bcc     L3C02
	inx
L3C02:	ora     ptr1
	pha
	txa
	ora     tmp1
	tax
	pla
	pha
	txa
	ora     #$20
	tax
	pla
	jsr     _one_vram_buffer
;
; one_vram_buffer(0xf6, NTADR_A(x, y + 3));
;
	lda     #$F6
	jsr     pusha
	ldx     #$00
	lda     _y
	clc
	adc     #$03
	bcc     L3C0A
	inx
L3C0A:	jsr     shlax4
	stx     tmp1
	asl     a
	rol     tmp1
	sta     ptr1
	lda     _x
	ora     ptr1
	pha
	lda     tmp1
	ora     #$20
	tax
	pla
	jsr     _one_vram_buffer
;
; one_vram_buffer(0xf7, NTADR_A(x + 1, y + 3));
;
	lda     #$F7
	jsr     pusha
	ldx     #$00
	lda     _y
	clc
	adc     #$03
	bcc     L3C13
	inx
L3C13:	jsr     shlax4
	stx     tmp1
	asl     a
	rol     tmp1
	sta     ptr1
	ldx     #$00
	lda     _x
	clc
	adc     #$01
	bcc     L3C15
	inx
L3C15:	ora     ptr1
	pha
	txa
	ora     tmp1
	tax
	pla
	pha
	txa
	ora     #$20
	tax
	pla
	jmp     _one_vram_buffer
;
; one_vram_buffer(0xc8, NTADR_A(x, y));
;
L3C17:	lda     #$C8
	jsr     pusha
	ldx     #$00
	lda     _y
	jsr     aslax4
	stx     tmp1
	asl     a
	rol     tmp1
	sta     ptr1
	lda     _x
	ora     ptr1
	pha
	lda     tmp1
	ora     #$20
	tax
	pla
	jsr     _one_vram_buffer
;
; one_vram_buffer(0xc9, NTADR_A(x + 1, y));
;
	lda     #$C9
	jsr     pusha
	ldx     #$00
	lda     _y
	jsr     aslax4
	stx     tmp1
	asl     a
	rol     tmp1
	sta     ptr1
	ldx     #$00
	lda     _x
	clc
	adc     #$01
	bcc     L3C28
	inx
L3C28:	ora     ptr1
	pha
	txa
	ora     tmp1
	tax
	pla
	pha
	txa
	ora     #$20
	tax
	pla
	jsr     _one_vram_buffer
;
; one_vram_buffer(0xd8, NTADR_A(x, y + 1));
;
	lda     #$D8
	jsr     pusha
	ldx     #$00
	lda     _y
	clc
	adc     #$01
	bcc     L3C30
	inx
L3C30:	jsr     shlax4
	stx     tmp1
	asl     a
	rol     tmp1
	sta     ptr1
	lda     _x
	ora     ptr1
	pha
	lda     tmp1
	ora     #$20
	tax
	pla
	jsr     _one_vram_buffer
;
; one_vram_buffer(0xd9, NTADR_A(x + 1, y + 1));
;
	lda     #$D9
	jsr     pusha
	ldx     #$00
	lda     _y
	clc
	adc     #$01
	bcc     L3C39
	inx
L3C39:	jsr     shlax4
	stx     tmp1
	asl     a
	rol     tmp1
	sta     ptr1
	ldx     #$00
	lda     _x
	clc
	adc     #$01
	bcc     L3C3B
	inx
L3C3B:	ora     ptr1
	pha
	txa
	ora     tmp1
	tax
	pla
	pha
	txa
	ora     #$20
	tax
	pla
	jsr     _one_vram_buffer
;
; one_vram_buffer(0xe8, NTADR_A(x, y + 2));
;
	lda     #$E8
	jsr     pusha
	ldx     #$00
	lda     _y
	clc
	adc     #$02
	bcc     L3C43
	inx
L3C43:	jsr     shlax4
	stx     tmp1
	asl     a
	rol     tmp1
	sta     ptr1
	lda     _x
	ora     ptr1
	pha
	lda     tmp1
	ora     #$20
	tax
	pla
	jsr     _one_vram_buffer
;
; one_vram_buffer(0xe9, NTADR_A(x + 1, y + 2));
;
	lda     #$E9
	jsr     pusha
	ldx     #$00
	lda     _y
	clc
	adc     #$02
	bcc     L3C4C
	inx
L3C4C:	jsr     shlax4
	stx     tmp1
	asl     a
	rol     tmp1
	sta     ptr1
	ldx     #$00
	lda     _x
	clc
	adc     #$01
	bcc     L3C4E
	inx
L3C4E:	ora     ptr1
	pha
	txa
	ora     tmp1
	tax
	pla
	pha
	txa
	ora     #$20
	tax
	pla
	jsr     _one_vram_buffer
;
; one_vram_buffer(0xf8, NTADR_A(x, y + 3));
;
	lda     #$F8
	jsr     pusha
	ldx     #$00
	lda     _y
	clc
	adc     #$03
	bcc     L3C56
	inx
L3C56:	jsr     shlax4
	stx     tmp1
	asl     a
	rol     tmp1
	sta     ptr1
	lda     _x
	ora     ptr1
	pha
	lda     tmp1
	ora     #$20
	tax
	pla
	jsr     _one_vram_buffer
;
; one_vram_buffer(0xf9, NTADR_A(x + 1, y + 3));
;
	lda     #$F9
	jsr     pusha
	ldx     #$00
	lda     _y
	clc
	adc     #$03
	bcc     L3C5F
	inx
L3C5F:	jsr     shlax4
	stx     tmp1
	asl     a
	rol     tmp1
	sta     ptr1
	ldx     #$00
	lda     _x
	clc
	adc     #$01
	bcc     L3C61
	inx
L3C61:	ora     ptr1
	pha
	txa
	ora     tmp1
	tax
	pla
	pha
	txa
	ora     #$20
	tax
	pla
	jmp     _one_vram_buffer
;
; one_vram_buffer(0xca, NTADR_A(x, y));
;
L3C63:	lda     #$CA
	jsr     pusha
	ldx     #$00
	lda     _y
	jsr     aslax4
	stx     tmp1
	asl     a
	rol     tmp1
	sta     ptr1
	lda     _x
	ora     ptr1
	pha
	lda     tmp1
	ora     #$20
	tax
	pla
	jsr     _one_vram_buffer
;
; one_vram_buffer(0xcb, NTADR_A(x + 1, y));
;
	lda     #$CB
	jsr     pusha
	ldx     #$00
	lda     _y
	jsr     aslax4
	stx     tmp1
	asl     a
	rol     tmp1
	sta     ptr1
	ldx     #$00
	lda     _x
	clc
	adc     #$01
	bcc     L3C74
	inx
L3C74:	ora     ptr1
	pha
	txa
	ora     tmp1
	tax
	pla
	pha
	txa
	ora     #$20
	tax
	pla
	jsr     _one_vram_buffer
;
; one_vram_buffer(0xda, NTADR_A(x, y + 1));
;
	lda     #$DA
	jsr     pusha
	ldx     #$00
	lda     _y
	clc
	adc     #$01
	bcc     L3C7C
	inx
L3C7C:	jsr     shlax4
	stx     tmp1
	asl     a
	rol     tmp1
	sta     ptr1
	lda     _x
	ora     ptr1
	pha
	lda     tmp1
	ora     #$20
	tax
	pla
	jsr     _one_vram_buffer
;
; one_vram_buffer(0xdb, NTADR_A(x + 1, y + 1));
;
	lda     #$DB
	jsr     pusha
	ldx     #$00
	lda     _y
	clc
	adc     #$01
	bcc     L3C85
	inx
L3C85:	jsr     shlax4
	stx     tmp1
	asl     a
	rol     tmp1
	sta     ptr1
	ldx     #$00
	lda     _x
	clc
	adc     #$01
	bcc     L3C87
	inx
L3C87:	ora     ptr1
	pha
	txa
	ora     tmp1
	tax
	pla
	pha
	txa
	ora     #$20
	tax
	pla
	jsr     _one_vram_buffer
;
; one_vram_buffer(0xea, NTADR_A(x, y + 2));
;
	lda     #$EA
	jsr     pusha
	ldx     #$00
	lda     _y
	clc
	adc     #$02
	bcc     L3C8F
	inx
L3C8F:	jsr     shlax4
	stx     tmp1
	asl     a
	rol     tmp1
	sta     ptr1
	lda     _x
	ora     ptr1
	pha
	lda     tmp1
	ora     #$20
	tax
	pla
	jsr     _one_vram_buffer
;
; one_vram_buffer(0xeb, NTADR_A(x + 1, y + 2));
;
	lda     #$EB
	jsr     pusha
	ldx     #$00
	lda     _y
	clc
	adc     #$02
	bcc     L3C98
	inx
L3C98:	jsr     shlax4
	stx     tmp1
	asl     a
	rol     tmp1
	sta     ptr1
	ldx     #$00
	lda     _x
	clc
	adc     #$01
	bcc     L3C9A
	inx
L3C9A:	ora     ptr1
	pha
	txa
	ora     tmp1
	tax
	pla
	pha
	txa
	ora     #$20
	tax
	pla
	jsr     _one_vram_buffer
;
; one_vram_buffer(0xfa, NTADR_A(x, y + 3));
;
	lda     #$FA
	jsr     pusha
	ldx     #$00
	lda     _y
	clc
	adc     #$03
	bcc     L3CA2
	inx
L3CA2:	jsr     shlax4
	stx     tmp1
	asl     a
	rol     tmp1
	sta     ptr1
	lda     _x
	ora     ptr1
	pha
	lda     tmp1
	ora     #$20
	tax
	pla
	jsr     _one_vram_buffer
;
; one_vram_buffer(0xfb, NTADR_A(x + 1, y + 3));
;
	lda     #$FB
	jsr     pusha
	ldx     #$00
	lda     _y
	clc
	adc     #$03
	bcc     L3CAB
	inx
L3CAB:	jsr     shlax4
	stx     tmp1
	asl     a
	rol     tmp1
	sta     ptr1
	ldx     #$00
	lda     _x
	clc
	adc     #$01
	bcc     L3CAD
	inx
L3CAD:	ora     ptr1
	pha
	txa
	ora     tmp1
	tax
	pla
	pha
	txa
	ora     #$20
	tax
	pla
	jmp     _one_vram_buffer
;
; one_vram_buffer(0xcc, NTADR_A(x, y));
;
L3CAF:	lda     #$CC
	jsr     pusha
	ldx     #$00
	lda     _y
	jsr     aslax4
	stx     tmp1
	asl     a
	rol     tmp1
	sta     ptr1
	lda     _x
	ora     ptr1
	pha
	lda     tmp1
	ora     #$20
	tax
	pla
	jsr     _one_vram_buffer
;
; one_vram_buffer(0xcd, NTADR_A(x + 1, y));
;
	lda     #$CD
	jsr     pusha
	ldx     #$00
	lda     _y
	jsr     aslax4
	stx     tmp1
	asl     a
	rol     tmp1
	sta     ptr1
	ldx     #$00
	lda     _x
	clc
	adc     #$01
	bcc     L3CC0
	inx
L3CC0:	ora     ptr1
	pha
	txa
	ora     tmp1
	tax
	pla
	pha
	txa
	ora     #$20
	tax
	pla
	jsr     _one_vram_buffer
;
; one_vram_buffer(0xdc, NTADR_A(x, y + 1));
;
	lda     #$DC
	jsr     pusha
	ldx     #$00
	lda     _y
	clc
	adc     #$01
	bcc     L3CC8
	inx
L3CC8:	jsr     shlax4
	stx     tmp1
	asl     a
	rol     tmp1
	sta     ptr1
	lda     _x
	ora     ptr1
	pha
	lda     tmp1
	ora     #$20
	tax
	pla
	jsr     _one_vram_buffer
;
; one_vram_buffer(0xdd, NTADR_A(x + 1, y + 1));
;
	lda     #$DD
	jsr     pusha
	ldx     #$00
	lda     _y
	clc
	adc     #$01
	bcc     L3CD1
	inx
L3CD1:	jsr     shlax4
	stx     tmp1
	asl     a
	rol     tmp1
	sta     ptr1
	ldx     #$00
	lda     _x
	clc
	adc     #$01
	bcc     L3CD3
	inx
L3CD3:	ora     ptr1
	pha
	txa
	ora     tmp1
	tax
	pla
	pha
	txa
	ora     #$20
	tax
	pla
	jsr     _one_vram_buffer
;
; one_vram_buffer(0xec, NTADR_A(x, y + 2));
;
	lda     #$EC
	jsr     pusha
	ldx     #$00
	lda     _y
	clc
	adc     #$02
	bcc     L3CDB
	inx
L3CDB:	jsr     shlax4
	stx     tmp1
	asl     a
	rol     tmp1
	sta     ptr1
	lda     _x
	ora     ptr1
	pha
	lda     tmp1
	ora     #$20
	tax
	pla
	jsr     _one_vram_buffer
;
; one_vram_buffer(0xed, NTADR_A(x + 1, y + 2));
;
	lda     #$ED
	jsr     pusha
	ldx     #$00
	lda     _y
	clc
	adc     #$02
	bcc     L3CE4
	inx
L3CE4:	jsr     shlax4
	stx     tmp1
	asl     a
	rol     tmp1
	sta     ptr1
	ldx     #$00
	lda     _x
	clc
	adc     #$01
	bcc     L3CE6
	inx
L3CE6:	ora     ptr1
	pha
	txa
	ora     tmp1
	tax
	pla
	pha
	txa
	ora     #$20
	tax
	pla
	jsr     _one_vram_buffer
;
; one_vram_buffer(0xfc, NTADR_A(x, y + 3));
;
	lda     #$FC
	jsr     pusha
	ldx     #$00
	lda     _y
	clc
	adc     #$03
	bcc     L3CEE
	inx
L3CEE:	jsr     shlax4
	stx     tmp1
	asl     a
	rol     tmp1
	sta     ptr1
	lda     _x
	ora     ptr1
	pha
	lda     tmp1
	ora     #$20
	tax
	pla
	jsr     _one_vram_buffer
;
; one_vram_buffer(0xfd, NTADR_A(x + 1, y + 3));
;
	lda     #$FD
	jsr     pusha
	ldx     #$00
	lda     _y
	clc
	adc     #$03
	bcc     L3CF7
	inx
L3CF7:	jsr     shlax4
	stx     tmp1
	asl     a
	rol     tmp1
	sta     ptr1
	ldx     #$00
	lda     _x
	clc
	adc     #$01
	bcc     L3CF9
	inx
L3CF9:	ora     ptr1
	pha
	txa
	ora     tmp1
	tax
	pla
	pha
	txa
	ora     #$20
	tax
	pla
	jmp     _one_vram_buffer
;
; one_vram_buffer(0xce, NTADR_A(x, y));
;
L3CFB:	lda     #$CE
	jsr     pusha
	ldx     #$00
	lda     _y
	jsr     aslax4
	stx     tmp1
	asl     a
	rol     tmp1
	sta     ptr1
	lda     _x
	ora     ptr1
	pha
	lda     tmp1
	ora     #$20
	tax
	pla
	jsr     _one_vram_buffer
;
; one_vram_buffer(0xcf, NTADR_A(x + 1, y));
;
	lda     #$CF
	jsr     pusha
	ldx     #$00
	lda     _y
	jsr     aslax4
	stx     tmp1
	asl     a
	rol     tmp1
	sta     ptr1
	ldx     #$00
	lda     _x
	clc
	adc     #$01
	bcc     L3D0C
	inx
L3D0C:	ora     ptr1
	pha
	txa
	ora     tmp1
	tax
	pla
	pha
	txa
	ora     #$20
	tax
	pla
	jsr     _one_vram_buffer
;
; one_vram_buffer(0xde, NTADR_A(x, y + 1));
;
	lda     #$DE
	jsr     pusha
	ldx     #$00
	lda     _y
	clc
	adc     #$01
	bcc     L3D14
	inx
L3D14:	jsr     shlax4
	stx     tmp1
	asl     a
	rol     tmp1
	sta     ptr1
	lda     _x
	ora     ptr1
	pha
	lda     tmp1
	ora     #$20
	tax
	pla
	jsr     _one_vram_buffer
;
; one_vram_buffer(0xdf, NTADR_A(x + 1, y + 1));
;
	lda     #$DF
	jsr     pusha
	ldx     #$00
	lda     _y
	clc
	adc     #$01
	bcc     L3D1D
	inx
L3D1D:	jsr     shlax4
	stx     tmp1
	asl     a
	rol     tmp1
	sta     ptr1
	ldx     #$00
	lda     _x
	clc
	adc     #$01
	bcc     L3D1F
	inx
L3D1F:	ora     ptr1
	pha
	txa
	ora     tmp1
	tax
	pla
	pha
	txa
	ora     #$20
	tax
	pla
	jsr     _one_vram_buffer
;
; one_vram_buffer(0xee, NTADR_A(x, y + 2));
;
	lda     #$EE
	jsr     pusha
	ldx     #$00
	lda     _y
	clc
	adc     #$02
	bcc     L3D27
	inx
L3D27:	jsr     shlax4
	stx     tmp1
	asl     a
	rol     tmp1
	sta     ptr1
	lda     _x
	ora     ptr1
	pha
	lda     tmp1
	ora     #$20
	tax
	pla
	jsr     _one_vram_buffer
;
; one_vram_buffer(0xef, NTADR_A(x + 1, y + 2));
;
	lda     #$EF
	jsr     pusha
	ldx     #$00
	lda     _y
	clc
	adc     #$02
	bcc     L3D30
	inx
L3D30:	jsr     shlax4
	stx     tmp1
	asl     a
	rol     tmp1
	sta     ptr1
	ldx     #$00
	lda     _x
	clc
	adc     #$01
	bcc     L3D32
	inx
L3D32:	ora     ptr1
	pha
	txa
	ora     tmp1
	tax
	pla
	pha
	txa
	ora     #$20
	tax
	pla
	jsr     _one_vram_buffer
;
; one_vram_buffer(0xfe, NTADR_A(x, y + 3));
;
	lda     #$FE
	jsr     pusha
	ldx     #$00
	lda     _y
	clc
	adc     #$03
	bcc     L3D3A
	inx
L3D3A:	jsr     shlax4
	stx     tmp1
	asl     a
	rol     tmp1
	sta     ptr1
	lda     _x
	ora     ptr1
	pha
	lda     tmp1
	ora     #$20
	tax
	pla
	jsr     _one_vram_buffer
;
; one_vram_buffer(0xff, NTADR_A(x + 1, y + 3));
;
	lda     #$FF
	jsr     pusha
	ldx     #$00
	lda     _y
	clc
	adc     #$03
	bcc     L3D43
	inx
L3D43:	jsr     shlax4
	stx     tmp1
	asl     a
	rol     tmp1
	sta     ptr1
	ldx     #$00
	lda     _x
	clc
	adc     #$01
	bcc     L3D45
	inx
L3D45:	ora     ptr1
	pha
	txa
	ora     tmp1
	tax
	pla
	pha
	txa
	ora     #$20
	tax
	pla
	jmp     _one_vram_buffer
;
; one_vram_buffer(0x5e, NTADR_A(x, y));
;
L3D47:	lda     #$5E
	jsr     pusha
	ldx     #$00
	lda     _y
	jsr     aslax4
	stx     tmp1
	asl     a
	rol     tmp1
	sta     ptr1
	lda     _x
	ora     ptr1
	pha
	lda     tmp1
	ora     #$20
	tax
	pla
	jsr     _one_vram_buffer
;
; one_vram_buffer(0x5f, NTADR_A(x + 1, y));
;
	lda     #$5F
	jsr     pusha
	ldx     #$00
	lda     _y
	jsr     aslax4
	stx     tmp1
	asl     a
	rol     tmp1
	sta     ptr1
	ldx     #$00
	lda     _x
	clc
	adc     #$01
	bcc     L3D58
	inx
L3D58:	ora     ptr1
	pha
	txa
	ora     tmp1
	tax
	pla
	pha
	txa
	ora     #$20
	tax
	pla
	jsr     _one_vram_buffer
;
; one_vram_buffer(0x6e, NTADR_A(x, y + 1));
;
	lda     #$6E
	jsr     pusha
	ldx     #$00
	lda     _y
	clc
	adc     #$01
	bcc     L3D60
	inx
L3D60:	jsr     shlax4
	stx     tmp1
	asl     a
	rol     tmp1
	sta     ptr1
	lda     _x
	ora     ptr1
	pha
	lda     tmp1
	ora     #$20
	tax
	pla
	jsr     _one_vram_buffer
;
; one_vram_buffer(0x6f, NTADR_A(x + 1, y + 1));
;
	lda     #$6F
	jsr     pusha
	ldx     #$00
	lda     _y
	clc
	adc     #$01
	bcc     L3D69
	inx
L3D69:	jsr     shlax4
	stx     tmp1
	asl     a
	rol     tmp1
	sta     ptr1
	ldx     #$00
	lda     _x
	clc
	adc     #$01
	bcc     L3D6B
	inx
L3D6B:	ora     ptr1
	pha
	txa
	ora     tmp1
	tax
	pla
	pha
	txa
	ora     #$20
	tax
	pla
	jsr     _one_vram_buffer
;
; one_vram_buffer(0x7e, NTADR_A(x, y + 2));
;
	lda     #$7E
	jsr     pusha
	ldx     #$00
	lda     _y
	clc
	adc     #$02
	bcc     L3D73
	inx
L3D73:	jsr     shlax4
	stx     tmp1
	asl     a
	rol     tmp1
	sta     ptr1
	lda     _x
	ora     ptr1
	pha
	lda     tmp1
	ora     #$20
	tax
	pla
	jsr     _one_vram_buffer
;
; one_vram_buffer(0x7f, NTADR_A(x + 1, y + 2));
;
	lda     #$7F
	jsr     pusha
	ldx     #$00
	lda     _y
	clc
	adc     #$02
	bcc     L3D7C
	inx
L3D7C:	jsr     shlax4
	stx     tmp1
	asl     a
	rol     tmp1
	sta     ptr1
	ldx     #$00
	lda     _x
	clc
	adc     #$01
	bcc     L3D7E
	inx
L3D7E:	ora     ptr1
	pha
	txa
	ora     tmp1
	tax
	pla
	pha
	txa
	ora     #$20
	tax
	pla
	jsr     _one_vram_buffer
;
; one_vram_buffer(0x8e, NTADR_A(x, y + 3));
;
	lda     #$8E
	jsr     pusha
	ldx     #$00
	lda     _y
	clc
	adc     #$03
	bcc     L3D86
	inx
L3D86:	jsr     shlax4
	stx     tmp1
	asl     a
	rol     tmp1
	sta     ptr1
	lda     _x
	ora     ptr1
	pha
	lda     tmp1
	ora     #$20
	tax
	pla
	jsr     _one_vram_buffer
;
; one_vram_buffer(0x8f, NTADR_A(x + 1, y + 3));
;
	lda     #$8F
	jsr     pusha
	ldx     #$00
	lda     _y
	clc
	adc     #$03
	bcc     L3D8F
	inx
L3D8F:	jsr     shlax4
	stx     tmp1
	asl     a
	rol     tmp1
	sta     ptr1
	ldx     #$00
	lda     _x
	clc
	adc     #$01
	bcc     L3D91
	inx
L3D91:	ora     ptr1
	pha
	txa
	ora     tmp1
	tax
	pla
	pha
	txa
	ora     #$20
	tax
	pla
	jmp     _one_vram_buffer
;
; one_vram_buffer(0x1e, NTADR_A(x, y));
;
L3D93:	lda     #$1E
	jsr     pusha
	ldx     #$00
	lda     _y
	jsr     aslax4
	stx     tmp1
	asl     a
	rol     tmp1
	sta     ptr1
	lda     _x
	ora     ptr1
	pha
	lda     tmp1
	ora     #$20
	tax
	pla
	jsr     _one_vram_buffer
;
; one_vram_buffer(0x1f, NTADR_A(x + 1, y));
;
	lda     #$1F
	jsr     pusha
	ldx     #$00
	lda     _y
	jsr     aslax4
	stx     tmp1
	asl     a
	rol     tmp1
	sta     ptr1
	ldx     #$00
	lda     _x
	clc
	adc     #$01
	bcc     L3DA4
	inx
L3DA4:	ora     ptr1
	pha
	txa
	ora     tmp1
	tax
	pla
	pha
	txa
	ora     #$20
	tax
	pla
	jsr     _one_vram_buffer
;
; one_vram_buffer(0x2e, NTADR_A(x, y + 1));
;
	lda     #$2E
	jsr     pusha
	ldx     #$00
	lda     _y
	clc
	adc     #$01
	bcc     L3DAC
	inx
L3DAC:	jsr     shlax4
	stx     tmp1
	asl     a
	rol     tmp1
	sta     ptr1
	lda     _x
	ora     ptr1
	pha
	lda     tmp1
	ora     #$20
	tax
	pla
	jsr     _one_vram_buffer
;
; one_vram_buffer(0x2f, NTADR_A(x + 1, y + 1));
;
	lda     #$2F
	jsr     pusha
	ldx     #$00
	lda     _y
	clc
	adc     #$01
	bcc     L3DB5
	inx
L3DB5:	jsr     shlax4
	stx     tmp1
	asl     a
	rol     tmp1
	sta     ptr1
	ldx     #$00
	lda     _x
	clc
	adc     #$01
	bcc     L3DB7
	inx
L3DB7:	ora     ptr1
	pha
	txa
	ora     tmp1
	tax
	pla
	pha
	txa
	ora     #$20
	tax
	pla
	jsr     _one_vram_buffer
;
; one_vram_buffer(0x3e, NTADR_A(x, y + 2));
;
	lda     #$3E
	jsr     pusha
	ldx     #$00
	lda     _y
	clc
	adc     #$02
	bcc     L3DBF
	inx
L3DBF:	jsr     shlax4
	stx     tmp1
	asl     a
	rol     tmp1
	sta     ptr1
	lda     _x
	ora     ptr1
	pha
	lda     tmp1
	ora     #$20
	tax
	pla
	jsr     _one_vram_buffer
;
; one_vram_buffer(0x3f, NTADR_A(x + 1, y + 2));
;
	lda     #$3F
	jsr     pusha
	ldx     #$00
	lda     _y
	clc
	adc     #$02
	bcc     L3DC8
	inx
L3DC8:	jsr     shlax4
	stx     tmp1
	asl     a
	rol     tmp1
	sta     ptr1
	ldx     #$00
	lda     _x
	clc
	adc     #$01
	bcc     L3DCA
	inx
L3DCA:	ora     ptr1
	pha
	txa
	ora     tmp1
	tax
	pla
	pha
	txa
	ora     #$20
	tax
	pla
	jsr     _one_vram_buffer
;
; one_vram_buffer(0x4e, NTADR_A(x, y + 3));
;
	lda     #$4E
	jsr     pusha
	ldx     #$00
	lda     _y
	clc
	adc     #$03
	bcc     L3DD2
	inx
L3DD2:	jsr     shlax4
	stx     tmp1
	asl     a
	rol     tmp1
	sta     ptr1
	lda     _x
	ora     ptr1
	pha
	lda     tmp1
	ora     #$20
	tax
	pla
	jsr     _one_vram_buffer
;
; one_vram_buffer(0x4f, NTADR_A(x + 1, y + 3));
;
	lda     #$4F
	jsr     pusha
	ldx     #$00
	lda     _y
	clc
	adc     #$03
	bcc     L3DDB
	inx
L3DDB:	jsr     shlax4
	stx     tmp1
	asl     a
	rol     tmp1
	sta     ptr1
	ldx     #$00
	lda     _x
	clc
	adc     #$01
	bcc     L3DDD
	inx
L3DDD:	ora     ptr1
	pha
	txa
	ora     tmp1
	tax
	pla
	pha
	txa
	ora     #$20
	tax
	pla
	jmp     _one_vram_buffer

.endproc

; ---------------------------------------------------------------
; void __near__ bank_3_draw_cost (void)
; ---------------------------------------------------------------

.segment	"BANK3"

.proc	_bank_3_draw_cost: near

.segment	"BANK3"

;
; if (cost3_changed)
;
	lda     _cost3_changed
	beq     L3DE0
;
; num_holder = cost4;
;
	lda     _cost4
	sta     _num_holder
;
; x = 21;
;
	lda     #$15
	sta     _x
;
; y = 14;
;
	lda     #$0E
	sta     _y
;
; bank_3_draw_number_as_bg_tile();
;
	jsr     _bank_3_draw_number_as_bg_tile
;
; cost3_changed = 0;
;
	lda     #$00
	sta     _cost3_changed
;
; if (cost2_changed)
;
L3DE0:	lda     _cost2_changed
	beq     L3DEB
;
; num_holder = cost3;
;
	lda     _cost3
	sta     _num_holder
;
; x = 23;
;
	lda     #$17
	sta     _x
;
; y = 14;
;
	lda     #$0E
	sta     _y
;
; bank_3_draw_number_as_bg_tile();
;
	jsr     _bank_3_draw_number_as_bg_tile
;
; cost2_changed = 0;
;
	lda     #$00
	sta     _cost2_changed
;
; if (cost1_changed)
;
L3DEB:	lda     _cost1_changed
	beq     L3DF6
;
; num_holder = cost2;
;
	lda     _cost2
	sta     _num_holder
;
; x = 25;
;
	lda     #$19
	sta     _x
;
; y = 14;
;
	lda     #$0E
	sta     _y
;
; bank_3_draw_number_as_bg_tile();
;
	jsr     _bank_3_draw_number_as_bg_tile
;
; cost1_changed = 0;
;
	lda     #$00
	sta     _cost1_changed
;
; num_holder = cost1;
;
L3DF6:	lda     _cost1
	sta     _num_holder
;
; x = 27;
;
	lda     #$1B
	sta     _x
;
; y = 14;
;
	lda     #$0E
	sta     _y
;
; bank_3_draw_number_as_bg_tile();
;
	jmp     _bank_3_draw_number_as_bg_tile

.endproc

; ---------------------------------------------------------------
; void __near__ bank_3_draw_gas (void)
; ---------------------------------------------------------------

.segment	"BANK3"

.proc	_bank_3_draw_gas: near

.segment	"BANK3"

;
; if (gas3_changed)
;
	lda     _gas3_changed
	beq     L3E09
;
; num_holder = gas4;
;
	lda     _gas4
	sta     _num_holder
;
; x = 21;
;
	lda     #$15
	sta     _x
;
; y = 20;
;
	lda     #$14
	sta     _y
;
; bank_3_draw_number_as_bg_tile();
;
	jsr     _bank_3_draw_number_as_bg_tile
;
; gas3_changed = 0;
;
	lda     #$00
	sta     _gas3_changed
;
; if (gas2_changed)
;
L3E09:	lda     _gas2_changed
	beq     L3E14
;
; num_holder = gas3;
;
	lda     _gas3
	sta     _num_holder
;
; x = 23;
;
	lda     #$17
	sta     _x
;
; y = 20;
;
	lda     #$14
	sta     _y
;
; bank_3_draw_number_as_bg_tile();
;
	jsr     _bank_3_draw_number_as_bg_tile
;
; gas2_changed = 0;
;
	lda     #$00
	sta     _gas2_changed
;
; if (gas1_changed)
;
L3E14:	lda     _gas1_changed
	beq     L3E1F
;
; num_holder = gas2;
;
	lda     _gas2
	sta     _num_holder
;
; x = 25;
;
	lda     #$19
	sta     _x
;
; y = 20;
;
	lda     #$14
	sta     _y
;
; bank_3_draw_number_as_bg_tile();
;
	jsr     _bank_3_draw_number_as_bg_tile
;
; gas1_changed = 0;
;
	lda     #$00
	sta     _gas1_changed
;
; oam_meta_spr(0xc5, 0x89, Decimal_1); // decimal for dollars
;
L3E1F:	jsr     decsp2
	lda     #$C5
	ldy     #$01
	sta     (sp),y
	lda     #$89
	dey
	sta     (sp),y
	lda     #<(_Decimal_1)
	ldx     #>(_Decimal_1)
	jsr     _oam_meta_spr
;
; oam_meta_spr(0xc5, 0xb9, Decimal_1); // decimal for gas
;
	jsr     decsp2
	lda     #$C5
	ldy     #$01
	sta     (sp),y
	lda     #$B9
	dey
	sta     (sp),y
	lda     #<(_Decimal_1)
	ldx     #>(_Decimal_1)
	jsr     _oam_meta_spr
;
; num_holder = gas1;
;
	lda     _gas1
	sta     _num_holder
;
; x = 27;
;
	lda     #$1B
	sta     _x
;
; y = 20;
;
	lda     #$14
	sta     _y
;
; bank_3_draw_number_as_bg_tile();
;
	jmp     _bank_3_draw_number_as_bg_tile

.endproc

; ---------------------------------------------------------------
; void __near__ bank_3_find_sprite (void)
; ---------------------------------------------------------------

.segment	"BANK3"

.proc	_bank_3_find_sprite: near

.segment	"BANK3"

;
; switch (sprite_cost)
;
	lda     _sprite_cost
;
; }
;
	beq     L3E3E
	cmp     #$01
	beq     L3E42
	cmp     #$02
	beq     L3E46
	cmp     #$03
	beq     L3E4A
	cmp     #$04
	beq     L3E4E
	cmp     #$05
	beq     L3E52
	cmp     #$06
	beq     L3E56
	cmp     #$07
	beq     L3E5A
	cmp     #$08
	beq     L3E5E
	cmp     #$09
	beq     L3E62
	rts
;
; pointer = Zero;
;
L3E3E:	lda     #>(_Zero)
	sta     _pointer+1
	lda     #<(_Zero)
	sta     _pointer
;
; break;
;
	rts
;
; pointer = One;
;
L3E42:	lda     #>(_One)
	sta     _pointer+1
	lda     #<(_One)
	sta     _pointer
;
; break;
;
	rts
;
; pointer = Two;
;
L3E46:	lda     #>(_Two)
	sta     _pointer+1
	lda     #<(_Two)
	sta     _pointer
;
; break;
;
	rts
;
; pointer = Three;
;
L3E4A:	lda     #>(_Three)
	sta     _pointer+1
	lda     #<(_Three)
	sta     _pointer
;
; break;
;
	rts
;
; pointer = Four;
;
L3E4E:	lda     #>(_Four)
	sta     _pointer+1
	lda     #<(_Four)
	sta     _pointer
;
; break;
;
	rts
;
; pointer = Five;
;
L3E52:	lda     #>(_Five)
	sta     _pointer+1
	lda     #<(_Five)
	sta     _pointer
;
; break;
;
	rts
;
; pointer = Six;
;
L3E56:	lda     #>(_Six)
	sta     _pointer+1
	lda     #<(_Six)
	sta     _pointer
;
; break;
;
	rts
;
; pointer = Seven;
;
L3E5A:	lda     #>(_Seven)
	sta     _pointer+1
	lda     #<(_Seven)
	sta     _pointer
;
; break;
;
	rts
;
; pointer = Eight;
;
L3E5E:	lda     #>(_Eight)
	sta     _pointer+1
	lda     #<(_Eight)
	sta     _pointer
;
; break;
;
	rts
;
; pointer = Nine;
;
L3E62:	lda     #>(_Nine)
	sta     _pointer+1
	lda     #<(_Nine)
	sta     _pointer
;
; break;
;
	rts

.endproc

; ---------------------------------------------------------------
; void __near__ bank_3_adjust_gas (void)
; ---------------------------------------------------------------

.segment	"BANK3"

.proc	_bank_3_adjust_gas: near

.segment	"BANK3"

;
; if (gas1 >= 10)
;
	lda     _gas1
	cmp     #$0A
	bcc     L48E6
;
; gas1_changed = 1;
;
	lda     #$01
	sta     _gas1_changed
;
; gas1 = 0;
;
	lda     #$00
	sta     _gas1
;
; ++gas2;
;
	inc     _gas2
;
; if (gas2 >= 10)
;
	lda     _gas2
	cmp     #$0A
	bcc     L48E6
;
; gas2_changed = 1;
;
	lda     #$01
	sta     _gas2_changed
;
; gas2 = 0;
;
	lda     #$00
	sta     _gas2
;
; ++gas3;
;
	inc     _gas3
;
; if (gas3 >= 10)
;
	lda     _gas3
	cmp     #$0A
	bcc     L48E5
;
; gas3_changed = 1;
;
	lda     #$01
	sta     _gas3_changed
;
; gas3 = 0;
;
	lda     #$00
	sta     _gas3
;
; ++gas4;
;
	inc     _gas4
;
; if (gas4 >= 10)
;
L48E5:	lda     _gas4
	cmp     #$0A
	bcc     L48E6
;
; gas4_changed = 1;
;
	lda     #$01
	sta     _gas4_changed
;
; gas4 = 0;
;
	lda     #$00
	sta     _gas4
;
; ++gas5;
;
	inc     _gas5
;
; if (gas5 >= 10)
;
L48E6:	lda     _gas5
	cmp     #$0A
	bcc     L3E83
;
; gas5 = 9;
;
	lda     #$09
	sta     _gas5
;
; gas4 = 9;
;
	sta     _gas4
;
; gas3 = 9;
;
	sta     _gas3
;
; gas2 = 9;
;
	sta     _gas2
;
; gas1 = 9;
;
	sta     _gas1
;
; }
;
L3E83:	rts

.endproc

; ---------------------------------------------------------------
; void __near__ bank_3_adjust_cost (void)
; ---------------------------------------------------------------

.segment	"BANK3"

.proc	_bank_3_adjust_cost: near

.segment	"BANK3"

;
; if (cost1 >= 10)
;
	lda     _cost1
	cmp     #$0A
	bcc     L48E8
;
; cost1_changed = 1;
;
	lda     #$01
	sta     _cost1_changed
;
; cost1 = 0;
;
	lda     #$00
	sta     _cost1
;
; ++cost2;
;
	inc     _cost2
;
; if (cost2 >= 10)
;
	lda     _cost2
	cmp     #$0A
	bcc     L48E8
;
; cost2_changed = 1;
;
	lda     #$01
	sta     _cost2_changed
;
; cost2 = 0;
;
	lda     #$00
	sta     _cost2
;
; ++cost3;
;
	inc     _cost3
;
; if (cost3 >= 10)
;
	lda     _cost3
	cmp     #$0A
	bcc     L48E7
;
; cost3_changed = 1;
;
	lda     #$01
	sta     _cost3_changed
;
; cost3 = 0;
;
	lda     #$00
	sta     _cost3
;
; ++cost4;
;
	inc     _cost4
;
; if (cost4 >= 10)
;
L48E7:	lda     _cost4
	cmp     #$0A
	bcc     L48E8
;
; cost4_changed = 1;
;
	lda     #$01
	sta     _cost4_changed
;
; cost4 = 0;
;
	lda     #$00
	sta     _cost4
;
; ++cost5;
;
	inc     _cost5
;
; if (cost5 >= 10)
;
L48E8:	lda     _cost5
	cmp     #$0A
	bcc     L3EAC
;
; cost5 = 9;
;
	lda     #$09
	sta     _cost5
;
; cost4 = 9;
;
	sta     _cost4
;
; cost3 = 9;
;
	sta     _cost3
;
; cost2 = 9;
;
	sta     _cost2
;
; cost1 = 9;
;
	sta     _cost1
;
; }
;
L3EAC:	rts

.endproc

; ---------------------------------------------------------------
; void __near__ bank_3_level_loop (void)
; ---------------------------------------------------------------

.segment	"BANK3"

.proc	_bank_3_level_loop: near

.segment	"BANK3"

;
; ppu_wait_nmi(); // wait till beginning of the frame
;
	jsr     _ppu_wait_nmi
;
; bank_3_draw_level_one_sprites();
;
	jsr     _bank_3_draw_level_one_sprites
;
; bank_3_draw_gas();
;
	jsr     _bank_3_draw_gas
;
; bank_3_draw_cost();
;
	jsr     _bank_3_draw_cost
;
; read_input(); // sets input_active
;
	jsr     _read_input
;
; if (trigger_pulled)
;
	lda     _trigger_pulled
	beq     L3EBE
;
; started_pumping = 1; // actually only need to set this once
;
	lda     #$01
	sta     _started_pumping
;
; gas_speed += GAS_STEP;
;
	lda     #$32
	clc
	adc     _gas_speed
	sta     _gas_speed
	bcc     L3EC7
	inc     _gas_speed+1
;
; while (gas_speed > 256)
;
	jmp     L3EC7
;
; ++gas1;
;
L48E9:	inc     _gas1
;
; gas_speed -= 256;
;
	lda     _gas_speed
	sec
	sbc     #$00
	sta     _gas_speed
	lda     _gas_speed+1
	sbc     #$01
	sta     _gas_speed+1
;
; while (gas_speed > 256)
;
L3EC7:	lda     _gas_speed
	cmp     #$01
	lda     _gas_speed+1
	sbc     #$01
	bcs     L48E9
;
; bank_3_adjust_gas();
;
	jsr     _bank_3_adjust_gas
;
; cost_speed += COST_STEP;
;
	lda     #$50
	clc
	adc     _cost_speed
	sta     _cost_speed
	bcc     L3ED2
	inc     _cost_speed+1
;
; while (cost_speed > 256)
;
	jmp     L3ED2
;
; ++cost1;
;
L48EA:	inc     _cost1
;
; cost_speed -= 256;
;
	lda     _cost_speed
	sec
	sbc     #$00
	sta     _cost_speed
	lda     _cost_speed+1
	sbc     #$01
	sta     _cost_speed+1
;
; while (cost_speed > 256)
;
L3ED2:	lda     _cost_speed
	cmp     #$01
	lda     _cost_speed+1
	sbc     #$01
	bcs     L48EA
;
; bank_3_adjust_cost();
;
	jmp     _bank_3_adjust_cost
;
; if (started_pumping == 1)
;
L3EBE:	lda     _started_pumping
	cmp     #$01
	bne     L3ED9
;
; wait_a_little();
;
	jsr     _wait_a_little
;
; banked_call(BANK_2, bank_2_init_level_one_end);
;
	lda     #$02
	jsr     pusha
	lda     #<(_bank_2_init_level_one_end)
	ldx     #>(_bank_2_init_level_one_end)
	jmp     _banked_call
;
; }
;
L3ED9:	rts

.endproc

; ---------------------------------------------------------------
; void __near__ bank_4_alien_level_init (void)
; ---------------------------------------------------------------

.segment	"BANK4"

.proc	_bank_4_alien_level_init: near

.segment	"BANK4"

;
; ppu_off();  // screen off
;
	jsr     _ppu_off
;
; oam_clear(); // clear all sprites
;
	jsr     _oam_clear
;
; pal_bg(futurepump_palette);
;
	lda     #<(_futurepump_palette)
	ldx     #>(_futurepump_palette)
	jsr     _pal_bg
;
; set_chr_bank_0(FUTUREPUMP_CHR_0);
;
	lda     #$08
	jsr     _set_chr_bank_0
;
; set_chr_bank_1(FUTUREPUMP_CHR_1);
;
	lda     #$09
	jsr     _set_chr_bank_1
;
; scroll(0, 0); // reset scrolling
;
	jsr     push0
	jsr     _scroll
;
; index = 0;
;
	lda     #$00
	sta     _index
;
; vram_adr(NAMETABLE_A); // Nametable A;
;
	ldx     #$20
	jsr     _vram_adr
;
; for(largeindex = 0; largeindex < 1024; ++largeindex){
;
	lda     #$00
	sta     _largeindex
	sta     _largeindex+1
L4721:	lda     _largeindex
	cmp     #$00
	lda     _largeindex+1
	sbc     #$04
	bvc     L4728
	eor     #$80
L4728:	asl     a
	lda     #$00
	bcc     L48EB
;
; vram_put(FUTURE_PUMP_LEVEL[largeindex]); //todo fix this
;
	lda     #<(_FUTURE_PUMP_LEVEL)
	sta     ptr1
	lda     #>(_FUTURE_PUMP_LEVEL)
	clc
	adc     _largeindex+1
	sta     ptr1+1
	ldy     _largeindex
	lda     (ptr1),y
	jsr     _vram_put
;
; ++index;
;
	inc     _index
;
; if(index > 40) { //don't put too much in the vram_buffer
;
	lda     _index
	cmp     #$29
	bcc     L4723
;
; flush_vram_update2();
;
	jsr     _flush_vram_update2
;
; index = 0;
;
	lda     #$00
	sta     _index
;
; for(largeindex = 0; largeindex < 1024; ++largeindex){
;
L4723:	inc     _largeindex
	bne     L4721
	inc     _largeindex+1
	jmp     L4721
;
; pal_fade_to(0, 4);
;
L48EB:	jsr     pusha
	lda     #$04
	jsr     _pal_fade_to
;
; ppu_on_all();
;
	jsr     _ppu_on_all
;
; game_mode = MODE_ALIEN_LEVEL;
;
	lda     #$09
	sta     _game_mode
;
; }
;
	rts

.endproc

; ---------------------------------------------------------------
; void __near__ bank_4_instruction_init (void)
; ---------------------------------------------------------------

.segment	"BANK4"

.proc	_bank_4_instruction_init: near

.segment	"BANK4"

;
; game_mode = MODE_ALIEN_INSTRUCTION;
;
	lda     #$08
	sta     _game_mode
;
; }
;
	rts

.endproc

; ---------------------------------------------------------------
; void __near__ bank_4_instruction_loop (void)
; ---------------------------------------------------------------

.segment	"BANK4"

.proc	_bank_4_instruction_loop: near

.segment	"BANK4"

;
; ppu_wait_nmi();
;
	jsr     _ppu_wait_nmi
;
; banked_call(BANK_4,bank_4_alien_level_init);
;
	lda     #$04
	jsr     pusha
	lda     #<(_bank_4_alien_level_init)
	ldx     #>(_bank_4_alien_level_init)
	jmp     _banked_call

.endproc

; ---------------------------------------------------------------
; void __near__ bank_4_cutscene_loop (void)
; ---------------------------------------------------------------

.segment	"BANK4"

.proc	_bank_4_cutscene_loop: near

.segment	"BANK4"

;
; ppu_wait_nmi();
;
	jsr     _ppu_wait_nmi
;
; ++moveframes;
;
	inc     _moveframes
;
; if(moveframes > 200){
;
	lda     _moveframes
	cmp     #$C9
	bcc     L4745
;
; banked_call(BANK_4, bank_4_instruction_init);
;
	lda     #$04
	jsr     pusha
	lda     #<(_bank_4_instruction_init)
	ldx     #>(_bank_4_instruction_init)
	jmp     _banked_call
;
; }
;
L4745:	rts

.endproc

; ---------------------------------------------------------------
; void __near__ bank_4_alien_level_loop (void)
; ---------------------------------------------------------------

.segment	"BANK4"

.proc	_bank_4_alien_level_loop: near

.segment	"BANK4"

;
; ppu_wait_nmi();
;
	jmp     _ppu_wait_nmi

.endproc

; ---------------------------------------------------------------
; void __near__ main (void)
; ---------------------------------------------------------------

.segment	"CODE"

.proc	_main: near

.segment	"CODE"

;
; ppu_off(); // screen off
;
	jsr     _ppu_off
;
; moveframes = 0;
;
	lda     #$00
	sta     _moveframes
;
; pal_bg(gaspump_palette);     // load the palette
;
	lda     #<(_gaspump_palette)
	ldx     #>(_gaspump_palette)
	jsr     _pal_bg
;
; pal_spr(gaspump_sprite_palette); // load the palette
;
	lda     #<(_gaspump_sprite_palette)
	ldx     #>(_gaspump_sprite_palette)
	jsr     _pal_spr
;
; pal_col(0, 0x0D);
;
	lda     #$00
	jsr     pusha
	lda     #$0D
	jsr     _pal_col
;
; alien_level = 0;
;
	lda     #$00
	sta     _alien_level
;
; bank_spr(1);    // sprites use the 2nd tileset
;
	lda     #$01
	jsr     _bank_spr
;
; set_scroll_y(0xff); // shift the bg down 1 pixel
;
	ldx     #$00
	lda     #$FF
	jsr     _set_scroll_y
;
; vram_adr(NAMETABLE_A);
;
	ldx     #$20
	lda     #$00
	jsr     _vram_adr
;
; ppu_wait_nmi(); // wait
;
	jsr     _ppu_wait_nmi
;
; set_vram_buffer(); // points ppu update to vram_buffer, do this at least once
;
	jsr     _set_vram_buffer
;
; ppu_on_all(); // turn on screen
;
	jsr     _ppu_on_all
;
; banked_call(BANK_1, bank_1_title_init);
;
	lda     #$01
	jsr     pusha
	lda     #<(_bank_1_title_init)
	ldx     #>(_bank_1_title_init)
	jsr     _banked_call
;
; if (game_mode == MODE_TITLE)
;
L48EC:	lda     _game_mode
	bne     L48ED
;
; banked_call(BANK_0, bank_0_title_loop);
;
	jsr     pusha
	lda     #<(_bank_0_title_loop)
	ldx     #>(_bank_0_title_loop)
	jsr     _banked_call
;
; if (game_mode == MODE_INTRO_SCROLL)
;
L48ED:	lda     _game_mode
	cmp     #$03
	bne     L48EE
;
; banked_call(BANK_0, bank_0_intro_scroll_loop);
;
	lda     #$00
	jsr     pusha
	lda     #<(_bank_0_intro_scroll_loop)
	ldx     #>(_bank_0_intro_scroll_loop)
	jsr     _banked_call
;
; if (game_mode == MODE_INTRO_CUTSCENE)
;
L48EE:	lda     _game_mode
	cmp     #$04
	bne     L48EF
;
; banked_call(BANK_0, bank_0_intro_cutscene_loop);
;
	lda     #$00
	jsr     pusha
	lda     #<(_bank_0_intro_cutscene_loop)
	ldx     #>(_bank_0_intro_cutscene_loop)
	jsr     _banked_call
;
; if (game_mode == MODE_INTRO_INSTRUCTION)
;
L48EF:	lda     _game_mode
	cmp     #$05
	bne     L48F0
;
; banked_call(BANK_1, bank_1_instructions_loop);
;
	lda     #$01
	jsr     pusha
	lda     #<(_bank_1_instructions_loop)
	ldx     #>(_bank_1_instructions_loop)
	jsr     _banked_call
;
; if (game_mode == MODE_EVALUATION_TIME)
;
L48F0:	lda     _game_mode
	cmp     #$06
	bne     L48F1
;
; banked_call(BANK_2, bank_2_evaluation_loop);
;
	lda     #$02
	jsr     pusha
	lda     #<(_bank_2_evaluation_loop)
	ldx     #>(_bank_2_evaluation_loop)
	jsr     _banked_call
;
; if (game_mode == MODE_GAME)
;
L48F1:	lda     _game_mode
	cmp     #$01
	bne     L48F2
;
; banked_call(BANK_3, bank_3_level_loop);
;
	lda     #$03
	jsr     pusha
	lda     #<(_bank_3_level_loop)
	ldx     #>(_bank_3_level_loop)
	jsr     _banked_call
;
; if(game_mode == MODE_ABDUCTION_CUTSCENE){
;
L48F2:	lda     _game_mode
	cmp     #$07
	bne     L48F3
;
; banked_call(BANK_4, bank_4_cutscene_loop);
;
	lda     #$04
	jsr     pusha
	lda     #<(_bank_4_cutscene_loop)
	ldx     #>(_bank_4_cutscene_loop)
	jsr     _banked_call
;
; if(game_mode == MODE_ALIEN_INSTRUCTION){
;
L48F3:	lda     _game_mode
	cmp     #$08
	bne     L48F4
;
; banked_call(BANK_4, bank_4_instruction_loop);
;
	lda     #$04
	jsr     pusha
	lda     #<(_bank_4_instruction_loop)
	ldx     #>(_bank_4_instruction_loop)
	jsr     _banked_call
;
; if(game_mode == MODE_ALIEN_LEVEL){
;
L48F4:	lda     _game_mode
	cmp     #$09
	bne     L48F5
;
; banked_call(BANK_4, bank_4_alien_level_loop);
;
	lda     #$04
	jsr     pusha
	lda     #<(_bank_4_alien_level_loop)
	ldx     #>(_bank_4_alien_level_loop)
	jsr     _banked_call
;
; if(game_mode == MODE_ALIEN_EVALUATION){
;
L48F5:	lda     _game_mode
	cmp     #$0A
	jsr     booleq
;
; if(game_mode == MODE_ALIEN_SHOOTING_GALLERY){
;
	lda     _game_mode
	cmp     #$0B
	jsr     booleq
;
; if(game_mode == MODE_GAME_ENDING) {
;
	lda     _game_mode
	cmp     #$0C
	jsr     booleq
;
; if(game_mode == MODE_GAME_OVER){
;
	lda     _game_mode
	cmp     #$0D
	jne     L48EC
;
; while (1)
;
	jmp     L48EC

.endproc

