;
; File generated by cc65 v 2.18 - N/A
;
	.fopt		compiler,"cc65 v 2.18 - N/A"
	.setcpu		"6502"
	.smart		on
	.autoimport	on
	.case		on
	.debuginfo	off
	.importzp	sp, sreg, regsave, regbank
	.importzp	tmp1, tmp2, tmp3, tmp4, ptr1, ptr2, ptr3, ptr4
	.macpack	longbranch
	.forceimport	__STARTUP__
	.import		_pal_bg
	.import		_pal_spr
	.import		_pal_col
	.import		_ppu_wait_nmi
	.import		_ppu_off
	.import		_ppu_on_all
	.import		_oam_clear
	.import		_oam_meta_spr
	.import		_pad_poll
	.import		_bank_spr
	.import		_vram_adr
	.import		_vram_put
	.import		_set_vram_buffer
	.import		_one_vram_buffer
	.import		_multi_vram_buffer_horz
	.import		_get_pad_new
	.import		_set_scroll_y
	.import		_flush_vram_update2
	.import		_zap_shoot
	.export		_bankLevel
	.export		_bankBuffer
	.import		_set_chr_bank_0
	.import		_set_chr_bank_1
	.export		_pad2_zapper
	.export		_zapper_ready
	.export		_hit_detected
	.export		_cost5
	.export		_cost4
	.export		_cost3
	.export		_cost2
	.export		_cost1
	.export		_cost5_changed
	.export		_cost4_changed
	.export		_cost3_changed
	.export		_cost2_changed
	.export		_cost1_changed
	.export		_gas5
	.export		_gas4
	.export		_gas3
	.export		_gas2
	.export		_gas1
	.export		_gas5_changed
	.export		_gas4_changed
	.export		_gas3_changed
	.export		_gas2_changed
	.export		_gas1_changed
	.export		_gas_speed
	.export		_cost_speed
	.export		_pad1
	.export		_pad1_new
	.export		_trigger_pulled
	.export		_trigger_clicked
	.export		_started_pumping
	.export		_sprite_cost
	.export		_cost_sprite
	.export		_game_mode
	.export		_game_level
	.export		_pointer
	.export		_temp1
	.export		_temp2
	.export		_temp3
	.export		_tempint
	.export		_talking_time
	.export		_bird_x
	.export		_bird_y
	.export		_address
	.export		_x
	.export		_y
	.export		_num_holder
	.export		_index
	.export		_index2
	.export		_largeindex
	.export		_moveframes
	.export		_wram_array
	.export		_adjust_cost
	.export		_adjust_gas
	.export		_draw_cost
	.export		_draw_gas
	.export		_read_input
	.export		_find_sprite
	.export		_init_mode_title
	.export		_init_mode_intro
	.export		_init_mode_game
	.export		_init_level_one_end
	.export		_draw_number_as_bg_tile
	.export		_draw_level_one_sprites
	.export		_draw_talking_time
	.export		_draw_talking_time_background
	.export		_clear_background
	.export		_reset_game_variables
	.export		_TurboGut_2
	.export		_BigAlTalk1
	.export		_BigAlTalk2
	.export		_Decimal_1
	.export		_Bird
	.export		_One
	.export		_Two
	.export		_Three
	.export		_Four
	.export		_Five
	.export		_Six
	.export		_Seven
	.export		_Eight
	.export		_Nine
	.export		_Zero
	.export		_metatiles_1
	.export		_room_1
	.export		_level1
	.export		_background_pal
	.export		_pal2
	.export		_talking_time_palete
	.export		_main

.segment	"DATA"

_talking_time:
	.byte	$00
_index:
	.byte	$00

.segment	"RODATA"

_TurboGut_2:
	.byte	$00
	.byte	$00
	.byte	$00
	.byte	$00
	.byte	$08
	.byte	$00
	.byte	$01
	.byte	$00
	.byte	$00
	.byte	$08
	.byte	$10
	.byte	$00
	.byte	$08
	.byte	$08
	.byte	$11
	.byte	$00
	.byte	$80
_BigAlTalk1:
	.byte	$08
	.byte	$30
	.byte	$E1
	.byte	$00
	.byte	$10
	.byte	$30
	.byte	$E2
	.byte	$00
	.byte	$18
	.byte	$30
	.byte	$E3
	.byte	$00
	.byte	$20
	.byte	$30
	.byte	$E4
	.byte	$00
	.byte	$28
	.byte	$30
	.byte	$E5
	.byte	$00
	.byte	$30
	.byte	$30
	.byte	$E6
	.byte	$00
	.byte	$80
_BigAlTalk2:
	.byte	$08
	.byte	$30
	.byte	$E1
	.byte	$00
	.byte	$10
	.byte	$30
	.byte	$E2
	.byte	$00
	.byte	$18
	.byte	$30
	.byte	$E9
	.byte	$01
	.byte	$20
	.byte	$30
	.byte	$EA
	.byte	$00
	.byte	$28
	.byte	$30
	.byte	$EB
	.byte	$00
	.byte	$30
	.byte	$30
	.byte	$E6
	.byte	$00
	.byte	$80
_Decimal_1:
	.byte	$00
	.byte	$00
	.byte	$84
	.byte	$00
	.byte	$80
_Bird:
	.byte	$00
	.byte	$00
	.byte	$A2
	.byte	$20
	.byte	$08
	.byte	$00
	.byte	$A3
	.byte	$20
	.byte	$10
	.byte	$00
	.byte	$A4
	.byte	$20
	.byte	$00
	.byte	$08
	.byte	$B2
	.byte	$20
	.byte	$08
	.byte	$08
	.byte	$B3
	.byte	$20
	.byte	$10
	.byte	$08
	.byte	$B4
	.byte	$20
	.byte	$80
_One:
	.byte	$00
	.byte	$00
	.byte	$00
	.byte	$00
	.byte	$08
	.byte	$00
	.byte	$01
	.byte	$00
	.byte	$00
	.byte	$08
	.byte	$10
	.byte	$00
	.byte	$08
	.byte	$08
	.byte	$11
	.byte	$00
	.byte	$00
	.byte	$10
	.byte	$20
	.byte	$00
	.byte	$08
	.byte	$10
	.byte	$21
	.byte	$00
	.byte	$00
	.byte	$18
	.byte	$30
	.byte	$00
	.byte	$08
	.byte	$18
	.byte	$31
	.byte	$00
	.byte	$80
_Two:
	.byte	$00
	.byte	$00
	.byte	$02
	.byte	$00
	.byte	$08
	.byte	$00
	.byte	$03
	.byte	$00
	.byte	$00
	.byte	$08
	.byte	$12
	.byte	$00
	.byte	$08
	.byte	$08
	.byte	$13
	.byte	$00
	.byte	$00
	.byte	$10
	.byte	$22
	.byte	$00
	.byte	$08
	.byte	$10
	.byte	$23
	.byte	$00
	.byte	$00
	.byte	$18
	.byte	$32
	.byte	$00
	.byte	$08
	.byte	$18
	.byte	$33
	.byte	$00
	.byte	$80
_Three:
	.byte	$00
	.byte	$00
	.byte	$04
	.byte	$00
	.byte	$08
	.byte	$00
	.byte	$05
	.byte	$00
	.byte	$00
	.byte	$08
	.byte	$14
	.byte	$00
	.byte	$08
	.byte	$08
	.byte	$15
	.byte	$00
	.byte	$00
	.byte	$10
	.byte	$24
	.byte	$00
	.byte	$08
	.byte	$10
	.byte	$25
	.byte	$00
	.byte	$00
	.byte	$18
	.byte	$34
	.byte	$00
	.byte	$08
	.byte	$18
	.byte	$35
	.byte	$00
	.byte	$80
_Four:
	.byte	$00
	.byte	$00
	.byte	$06
	.byte	$00
	.byte	$08
	.byte	$00
	.byte	$07
	.byte	$00
	.byte	$00
	.byte	$08
	.byte	$16
	.byte	$00
	.byte	$08
	.byte	$08
	.byte	$17
	.byte	$00
	.byte	$00
	.byte	$10
	.byte	$26
	.byte	$00
	.byte	$08
	.byte	$10
	.byte	$27
	.byte	$00
	.byte	$00
	.byte	$18
	.byte	$36
	.byte	$00
	.byte	$08
	.byte	$18
	.byte	$37
	.byte	$00
	.byte	$80
_Five:
	.byte	$00
	.byte	$00
	.byte	$08
	.byte	$00
	.byte	$08
	.byte	$00
	.byte	$09
	.byte	$00
	.byte	$00
	.byte	$08
	.byte	$18
	.byte	$00
	.byte	$08
	.byte	$08
	.byte	$19
	.byte	$00
	.byte	$00
	.byte	$10
	.byte	$28
	.byte	$00
	.byte	$08
	.byte	$10
	.byte	$29
	.byte	$00
	.byte	$00
	.byte	$18
	.byte	$38
	.byte	$00
	.byte	$08
	.byte	$18
	.byte	$39
	.byte	$00
	.byte	$80
_Six:
	.byte	$00
	.byte	$00
	.byte	$0A
	.byte	$00
	.byte	$08
	.byte	$00
	.byte	$0B
	.byte	$00
	.byte	$00
	.byte	$08
	.byte	$1A
	.byte	$00
	.byte	$08
	.byte	$08
	.byte	$1B
	.byte	$00
	.byte	$00
	.byte	$10
	.byte	$2A
	.byte	$00
	.byte	$08
	.byte	$10
	.byte	$2B
	.byte	$00
	.byte	$00
	.byte	$18
	.byte	$3A
	.byte	$00
	.byte	$08
	.byte	$18
	.byte	$3B
	.byte	$00
	.byte	$80
_Seven:
	.byte	$00
	.byte	$00
	.byte	$0C
	.byte	$00
	.byte	$08
	.byte	$00
	.byte	$0D
	.byte	$00
	.byte	$00
	.byte	$08
	.byte	$1C
	.byte	$00
	.byte	$08
	.byte	$08
	.byte	$1D
	.byte	$00
	.byte	$00
	.byte	$10
	.byte	$2C
	.byte	$00
	.byte	$08
	.byte	$10
	.byte	$2D
	.byte	$00
	.byte	$00
	.byte	$18
	.byte	$3C
	.byte	$00
	.byte	$08
	.byte	$18
	.byte	$3D
	.byte	$00
	.byte	$80
_Eight:
	.byte	$00
	.byte	$00
	.byte	$0E
	.byte	$00
	.byte	$08
	.byte	$00
	.byte	$0F
	.byte	$00
	.byte	$00
	.byte	$08
	.byte	$1E
	.byte	$00
	.byte	$08
	.byte	$08
	.byte	$1F
	.byte	$00
	.byte	$00
	.byte	$10
	.byte	$2E
	.byte	$00
	.byte	$08
	.byte	$10
	.byte	$2F
	.byte	$00
	.byte	$00
	.byte	$18
	.byte	$3E
	.byte	$00
	.byte	$08
	.byte	$18
	.byte	$3F
	.byte	$00
	.byte	$80
_Nine:
	.byte	$00
	.byte	$00
	.byte	$4E
	.byte	$00
	.byte	$08
	.byte	$00
	.byte	$4F
	.byte	$00
	.byte	$00
	.byte	$08
	.byte	$5E
	.byte	$00
	.byte	$08
	.byte	$08
	.byte	$5F
	.byte	$00
	.byte	$00
	.byte	$10
	.byte	$6E
	.byte	$00
	.byte	$08
	.byte	$10
	.byte	$6F
	.byte	$00
	.byte	$00
	.byte	$18
	.byte	$7E
	.byte	$00
	.byte	$08
	.byte	$18
	.byte	$7F
	.byte	$00
	.byte	$80
_Zero:
	.byte	$00
	.byte	$00
	.byte	$4C
	.byte	$00
	.byte	$08
	.byte	$00
	.byte	$4D
	.byte	$00
	.byte	$00
	.byte	$08
	.byte	$5C
	.byte	$00
	.byte	$08
	.byte	$08
	.byte	$5D
	.byte	$00
	.byte	$00
	.byte	$10
	.byte	$6C
	.byte	$00
	.byte	$08
	.byte	$10
	.byte	$6D
	.byte	$00
	.byte	$00
	.byte	$18
	.byte	$7C
	.byte	$00
	.byte	$08
	.byte	$18
	.byte	$7D
	.byte	$00
	.byte	$80
_metatiles_1:
	.byte	$00
	.byte	$00
	.byte	$00
	.byte	$00
	.byte	$00
	.byte	$C0
	.byte	$C1
	.byte	$D0
	.byte	$D1
	.byte	$01
	.byte	$E0
	.byte	$E1
	.byte	$F0
	.byte	$F1
	.byte	$01
	.byte	$C2
	.byte	$C3
	.byte	$D2
	.byte	$D3
	.byte	$01
	.byte	$E0
	.byte	$E3
	.byte	$F2
	.byte	$F3
	.byte	$01
	.byte	$C4
	.byte	$C5
	.byte	$D4
	.byte	$D5
	.byte	$01
	.byte	$E4
	.byte	$E5
	.byte	$F4
	.byte	$F5
	.byte	$01
	.byte	$00
	.byte	$00
	.byte	$7E
	.byte	$00
	.byte	$01
	.byte	$7C
	.byte	$00
	.byte	$5D
	.byte	$7B
	.byte	$01
	.byte	$5B
	.byte	$5C
	.byte	$5D
	.byte	$5C
	.byte	$01
	.byte	$7E
	.byte	$5B
	.byte	$7C
	.byte	$7C
	.byte	$01
	.byte	$3C
	.byte	$5C
	.byte	$7D
	.byte	$7C
	.byte	$01
	.byte	$7E
	.byte	$7E
	.byte	$7C
	.byte	$7C
	.byte	$01
	.byte	$7E
	.byte	$00
	.byte	$7C
	.byte	$00
	.byte	$01
	.byte	$5B
	.byte	$5C
	.byte	$3E
	.byte	$7F
	.byte	$01
	.byte	$5F
	.byte	$3C
	.byte	$00
	.byte	$7C
	.byte	$01
	.byte	$2F
	.byte	$5B
	.byte	$00
	.byte	$7C
	.byte	$01
	.byte	$5C
	.byte	$5B
	.byte	$7C
	.byte	$7C
	.byte	$01
	.byte	$5C
	.byte	$00
	.byte	$7F
	.byte	$00
	.byte	$01
	.byte	$7C
	.byte	$00
	.byte	$7C
	.byte	$00
	.byte	$01
	.byte	$7D
	.byte	$00
	.byte	$00
	.byte	$00
	.byte	$01
	.byte	$5F
	.byte	$7B
	.byte	$00
	.byte	$00
	.byte	$01
	.byte	$7F
	.byte	$00
	.byte	$7C
	.byte	$00
	.byte	$01
	.byte	$5E
	.byte	$00
	.byte	$00
	.byte	$00
	.byte	$01
	.byte	$5B
	.byte	$7B
	.byte	$7C
	.byte	$00
	.byte	$01
	.byte	$5D
	.byte	$5E
	.byte	$00
	.byte	$00
	.byte	$01
	.byte	$7D
	.byte	$7D
	.byte	$00
	.byte	$00
	.byte	$01
	.byte	$00
	.byte	$7D
	.byte	$00
	.byte	$00
	.byte	$01
	.byte	$5D
	.byte	$5E
	.byte	$00
	.byte	$00
	.byte	$01
	.byte	$5D
	.byte	$3D
	.byte	$00
	.byte	$00
	.byte	$01
	.byte	$7D
	.byte	$7D
	.byte	$00
	.byte	$00
	.byte	$01
	.byte	$00
	.byte	$7D
	.byte	$00
	.byte	$00
	.byte	$01
	.byte	$00
	.byte	$5D
	.byte	$00
	.byte	$00
	.byte	$01
	.byte	$5E
	.byte	$7D
	.byte	$00
	.byte	$00
	.byte	$01
	.byte	$7D
	.byte	$00
	.byte	$00
	.byte	$00
	.byte	$01
	.byte	$7C
	.byte	$00
	.byte	$7C
	.byte	$00
	.byte	$01
	.byte	$00
	.byte	$5F
	.byte	$00
	.byte	$00
	.byte	$01
	.byte	$00
	.byte	$00
	.byte	$7E
	.byte	$00
	.byte	$01
	.byte	$5E
	.byte	$00
	.byte	$00
	.byte	$00
	.byte	$01
	.byte	$00
	.byte	$00
	.byte	$5C
	.byte	$00
	.byte	$01
	.byte	$5D
	.byte	$7B
	.byte	$00
	.byte	$00
	.byte	$01
	.byte	$7B
	.byte	$7B
	.byte	$00
	.byte	$00
	.byte	$01
	.byte	$5E
	.byte	$00
	.byte	$00
	.byte	$00
	.byte	$01
	.byte	$00
	.byte	$00
	.byte	$7E
	.byte	$00
	.byte	$01
_room_1:
	.byte	$10
	.byte	$10
	.byte	$10
	.byte	$10
	.byte	$10
	.byte	$10
	.byte	$10
	.byte	$10
	.byte	$10
	.byte	$10
	.byte	$10
	.byte	$10
	.byte	$10
	.byte	$10
	.byte	$10
	.byte	$10
	.byte	$10
	.byte	$10
	.byte	$10
	.byte	$10
	.byte	$14
	.byte	$12
	.byte	$12
	.byte	$10
	.byte	$10
	.byte	$10
	.byte	$10
	.byte	$14
	.byte	$12
	.byte	$10
	.byte	$14
	.byte	$12
	.byte	$10
	.byte	$10
	.byte	$10
	.byte	$14
	.byte	$01
	.byte	$23
	.byte	$0A
	.byte	$10
	.byte	$14
	.byte	$14
	.byte	$07
	.byte	$02
	.byte	$02
	.byte	$07
	.byte	$0B
	.byte	$0A
	.byte	$10
	.byte	$10
	.byte	$10
	.byte	$09
	.byte	$25
	.byte	$24
	.byte	$01
	.byte	$07
	.byte	$01
	.byte	$1A
	.byte	$15
	.byte	$15
	.byte	$15
	.byte	$19
	.byte	$02
	.byte	$0A
	.byte	$10
	.byte	$10
	.byte	$10
	.byte	$14
	.byte	$01
	.byte	$25
	.byte	$01
	.byte	$0B
	.byte	$02
	.byte	$16
	.byte	$28
	.byte	$1F
	.byte	$00
	.byte	$17
	.byte	$23
	.byte	$11
	.byte	$10
	.byte	$10
	.byte	$10
	.byte	$13
	.byte	$01
	.byte	$02
	.byte	$01
	.byte	$01
	.byte	$01
	.byte	$16
	.byte	$00
	.byte	$00
	.byte	$1E
	.byte	$17
	.byte	$24
	.byte	$12
	.byte	$10
	.byte	$10
	.byte	$10
	.byte	$10
	.byte	$04
	.byte	$11
	.byte	$13
	.byte	$01
	.byte	$01
	.byte	$1B
	.byte	$18
	.byte	$00
	.byte	$18
	.byte	$1C
	.byte	$01
	.byte	$11
	.byte	$10
	.byte	$10
	.byte	$10
	.byte	$10
	.byte	$10
	.byte	$10
	.byte	$09
	.byte	$02
	.byte	$02
	.byte	$01
	.byte	$00
	.byte	$01
	.byte	$26
	.byte	$01
	.byte	$01
	.byte	$10
	.byte	$10
	.byte	$10
	.byte	$10
	.byte	$10
	.byte	$10
	.byte	$10
	.byte	$13
	.byte	$05
	.byte	$0B
	.byte	$01
	.byte	$01
	.byte	$01
	.byte	$01
	.byte	$01
	.byte	$01
	.byte	$12
	.byte	$10
	.byte	$10
	.byte	$10
	.byte	$10
	.byte	$10
	.byte	$10
	.byte	$10
	.byte	$10
	.byte	$13
	.byte	$01
	.byte	$02
	.byte	$01
	.byte	$01
	.byte	$01
	.byte	$01
	.byte	$25
_level1:
	.byte	$00
	.byte	$00
	.byte	$00
	.byte	$00
	.byte	$00
	.byte	$00
	.byte	$00
	.byte	$00
	.byte	$00
	.byte	$00
	.byte	$00
	.byte	$00
	.byte	$00
	.byte	$00
	.byte	$00
	.byte	$00
	.byte	$00
	.byte	$00
	.byte	$00
	.byte	$22
	.byte	$23
	.byte	$03
	.byte	$15
	.byte	$16
	.byte	$17
	.byte	$18
	.byte	$19
	.byte	$1A
	.byte	$1B
	.byte	$2C
	.byte	$2D
	.byte	$00
	.byte	$00
	.byte	$00
	.byte	$00
	.byte	$00
	.byte	$00
	.byte	$00
	.byte	$00
	.byte	$00
	.byte	$00
	.byte	$00
	.byte	$00
	.byte	$00
	.byte	$00
	.byte	$00
	.byte	$00
	.byte	$00
	.byte	$00
	.byte	$00
	.byte	$00
	.byte	$32
	.byte	$03
	.byte	$03
	.byte	$25
	.byte	$26
	.byte	$27
	.byte	$28
	.byte	$29
	.byte	$2A
	.byte	$2B
	.byte	$03
	.byte	$3D
	.byte	$00
	.byte	$00
	.byte	$00
	.byte	$00
	.byte	$00
	.byte	$00
	.byte	$00
	.byte	$00
	.byte	$00
	.byte	$00
	.byte	$00
	.byte	$00
	.byte	$00
	.byte	$00
	.byte	$00
	.byte	$00
	.byte	$00
	.byte	$00
	.byte	$00
	.byte	$00
	.byte	$42
	.byte	$03
	.byte	$34
	.byte	$35
	.byte	$36
	.byte	$37
	.byte	$38
	.byte	$39
	.byte	$3A
	.byte	$3B
	.byte	$03
	.byte	$4D
	.byte	$00
	.byte	$00
	.byte	$00
	.byte	$00
	.byte	$00
	.byte	$00
	.byte	$00
	.byte	$00
	.byte	$00
	.byte	$00
	.byte	$00
	.byte	$00
	.byte	$00
	.byte	$00
	.byte	$00
	.byte	$00
	.byte	$00
	.byte	$00
	.byte	$00
	.byte	$00
	.byte	$42
	.byte	$03
	.byte	$44
	.byte	$45
	.byte	$46
	.byte	$47
	.byte	$48
	.byte	$49
	.byte	$4A
	.byte	$4B
	.byte	$03
	.byte	$4D
	.byte	$00
	.byte	$00
	.byte	$00
	.byte	$00
	.byte	$00
	.byte	$00
	.byte	$00
	.byte	$00
	.byte	$00
	.byte	$00
	.byte	$00
	.byte	$00
	.byte	$00
	.byte	$00
	.byte	$00
	.byte	$00
	.byte	$00
	.byte	$00
	.byte	$00
	.byte	$00
	.byte	$52
	.byte	$53
	.byte	$54
	.byte	$55
	.byte	$56
	.byte	$57
	.byte	$58
	.byte	$59
	.byte	$5A
	.byte	$5B
	.byte	$5C
	.byte	$5D
	.byte	$00
	.byte	$00
	.byte	$00
	.byte	$00
	.byte	$00
	.byte	$00
	.byte	$00
	.byte	$00
	.byte	$00
	.byte	$00
	.byte	$00
	.byte	$00
	.byte	$00
	.byte	$00
	.byte	$00
	.byte	$00
	.byte	$00
	.byte	$00
	.byte	$00
	.byte	$00
	.byte	$62
	.byte	$63
	.byte	$64
	.byte	$65
	.byte	$66
	.byte	$67
	.byte	$68
	.byte	$69
	.byte	$6A
	.byte	$6B
	.byte	$6C
	.byte	$6D
	.byte	$00
	.byte	$00
	.byte	$00
	.byte	$00
	.byte	$00
	.byte	$00
	.byte	$00
	.byte	$00
	.byte	$00
	.byte	$00
	.byte	$00
	.byte	$00
	.byte	$00
	.byte	$00
	.byte	$00
	.byte	$00
	.byte	$00
	.byte	$00
	.byte	$00
	.byte	$00
	.byte	$00
	.byte	$73
	.byte	$74
	.byte	$03
	.byte	$76
	.byte	$77
	.byte	$78
	.byte	$79
	.byte	$7A
	.byte	$7B
	.byte	$7C
	.byte	$00
	.byte	$00
	.byte	$00
	.byte	$00
	.byte	$00
	.byte	$00
	.byte	$00
	.byte	$00
	.byte	$00
	.byte	$00
	.byte	$00
	.byte	$00
	.byte	$00
	.byte	$00
	.byte	$00
	.byte	$00
	.byte	$00
	.byte	$00
	.byte	$00
	.byte	$00
	.byte	$00
	.byte	$00
	.byte	$83
	.byte	$84
	.byte	$85
	.byte	$86
	.byte	$87
	.byte	$88
	.byte	$89
	.byte	$8A
	.byte	$8B
	.byte	$8C
	.byte	$00
	.byte	$00
	.byte	$00
	.byte	$00
	.byte	$00
	.byte	$00
	.byte	$00
	.byte	$00
	.byte	$00
	.byte	$00
	.byte	$00
	.byte	$00
	.byte	$00
	.byte	$00
	.byte	$00
	.byte	$00
	.byte	$00
	.byte	$00
	.byte	$00
	.byte	$00
	.byte	$91
	.byte	$92
	.byte	$93
	.byte	$94
	.byte	$95
	.byte	$96
	.byte	$97
	.byte	$98
	.byte	$99
	.byte	$9A
	.byte	$9B
	.byte	$9C
	.byte	$9D
	.byte	$9E
	.byte	$00
	.byte	$00
	.byte	$00
	.byte	$00
	.byte	$00
	.byte	$00
	.byte	$00
	.byte	$00
	.byte	$00
	.byte	$00
	.byte	$00
	.byte	$00
	.byte	$00
	.byte	$00
	.byte	$00
	.byte	$00
	.byte	$00
	.byte	$00
	.byte	$A1
	.byte	$A2
	.byte	$A3
	.byte	$A4
	.byte	$A5
	.byte	$01
	.byte	$A7
	.byte	$A8
	.byte	$A9
	.byte	$AA
	.byte	$AB
	.byte	$AC
	.byte	$AD
	.byte	$AE
	.byte	$00
	.byte	$00
	.byte	$00
	.byte	$00
	.byte	$00
	.byte	$00
	.byte	$00
	.byte	$00
	.byte	$00
	.byte	$00
	.byte	$00
	.byte	$00
	.byte	$00
	.byte	$00
	.byte	$00
	.byte	$00
	.byte	$00
	.byte	$00
	.byte	$B1
	.byte	$B2
	.byte	$B3
	.byte	$B4
	.byte	$B5
	.byte	$B6
	.byte	$B7
	.byte	$B8
	.byte	$B9
	.byte	$BA
	.byte	$BB
	.byte	$BC
	.byte	$BD
	.byte	$BE
	.byte	$00
	.byte	$00
	.byte	$00
	.byte	$00
	.byte	$00
	.byte	$00
	.byte	$00
	.byte	$00
	.byte	$00
	.byte	$00
	.byte	$00
	.byte	$00
	.byte	$00
	.byte	$00
	.byte	$00
	.byte	$00
	.byte	$00
	.byte	$00
	.byte	$B0
	.byte	$01
	.byte	$01
	.byte	$7D
	.byte	$01
	.byte	$01
	.byte	$01
	.byte	$01
	.byte	$01
	.byte	$01
	.byte	$01
	.byte	$01
	.byte	$01
	.byte	$BF
	.byte	$60
	.byte	$60
	.byte	$60
	.byte	$60
	.byte	$60
	.byte	$60
	.byte	$60
	.byte	$60
	.byte	$60
	.byte	$60
	.byte	$60
	.byte	$60
	.byte	$60
	.byte	$60
	.byte	$60
	.byte	$60
	.byte	$60
	.byte	$60
	.byte	$B0
	.byte	$81
	.byte	$07
	.byte	$08
	.byte	$09
	.byte	$0A
	.byte	$0B
	.byte	$0B
	.byte	$0C
	.byte	$0D
	.byte	$0E
	.byte	$0F
	.byte	$71
	.byte	$9F
	.byte	$60
	.byte	$60
	.byte	$60
	.byte	$60
	.byte	$60
	.byte	$60
	.byte	$60
	.byte	$60
	.byte	$60
	.byte	$60
	.byte	$60
	.byte	$60
	.byte	$60
	.byte	$60
	.byte	$60
	.byte	$60
	.byte	$60
	.byte	$60
	.byte	$B0
	.byte	$81
	.byte	$06
	.byte	$20
	.byte	$21
	.byte	$30
	.byte	$30
	.byte	$31
	.byte	$40
	.byte	$41
	.byte	$50
	.byte	$05
	.byte	$71
	.byte	$BF
	.byte	$60
	.byte	$60
	.byte	$60
	.byte	$60
	.byte	$60
	.byte	$60
	.byte	$60
	.byte	$60
	.byte	$60
	.byte	$60
	.byte	$60
	.byte	$60
	.byte	$60
	.byte	$60
	.byte	$60
	.byte	$60
	.byte	$60
	.byte	$60
	.byte	$90
	.byte	$81
	.byte	$02
	.byte	$02
	.byte	$02
	.byte	$02
	.byte	$02
	.byte	$02
	.byte	$02
	.byte	$1E
	.byte	$1F
	.byte	$02
	.byte	$71
	.byte	$BF
	.byte	$61
	.byte	$61
	.byte	$03
	.byte	$03
	.byte	$61
	.byte	$03
	.byte	$61
	.byte	$61
	.byte	$61
	.byte	$61
	.byte	$61
	.byte	$61
	.byte	$03
	.byte	$03
	.byte	$61
	.byte	$03
	.byte	$61
	.byte	$61
	.byte	$B0
	.byte	$81
	.byte	$02
	.byte	$02
	.byte	$02
	.byte	$02
	.byte	$02
	.byte	$02
	.byte	$02
	.byte	$2E
	.byte	$2F
	.byte	$02
	.byte	$3C
	.byte	$AF
	.byte	$02
	.byte	$02
	.byte	$02
	.byte	$02
	.byte	$02
	.byte	$02
	.byte	$03
	.byte	$03
	.byte	$02
	.byte	$02
	.byte	$03
	.byte	$03
	.byte	$02
	.byte	$02
	.byte	$03
	.byte	$03
	.byte	$02
	.byte	$02
	.byte	$B0
	.byte	$81
	.byte	$02
	.byte	$02
	.byte	$02
	.byte	$02
	.byte	$02
	.byte	$02
	.byte	$02
	.byte	$3E
	.byte	$3F
	.byte	$02
	.byte	$4C
	.byte	$9F
	.byte	$02
	.byte	$04
	.byte	$02
	.byte	$02
	.byte	$02
	.byte	$04
	.byte	$03
	.byte	$03
	.byte	$02
	.byte	$04
	.byte	$03
	.byte	$03
	.byte	$02
	.byte	$04
	.byte	$03
	.byte	$03
	.byte	$04
	.byte	$02
	.byte	$B0
	.byte	$81
	.byte	$02
	.byte	$02
	.byte	$02
	.byte	$02
	.byte	$02
	.byte	$02
	.byte	$02
	.byte	$4E
	.byte	$4F
	.byte	$02
	.byte	$71
	.byte	$AF
	.byte	$03
	.byte	$03
	.byte	$03
	.byte	$03
	.byte	$03
	.byte	$03
	.byte	$03
	.byte	$03
	.byte	$03
	.byte	$03
	.byte	$03
	.byte	$03
	.byte	$03
	.byte	$70
	.byte	$03
	.byte	$03
	.byte	$03
	.byte	$03
	.byte	$B0
	.byte	$81
	.byte	$43
	.byte	$01
	.byte	$01
	.byte	$01
	.byte	$01
	.byte	$01
	.byte	$01
	.byte	$01
	.byte	$01
	.byte	$33
	.byte	$71
	.byte	$BF
	.byte	$03
	.byte	$03
	.byte	$03
	.byte	$03
	.byte	$03
	.byte	$03
	.byte	$03
	.byte	$03
	.byte	$03
	.byte	$03
	.byte	$03
	.byte	$03
	.byte	$03
	.byte	$03
	.byte	$03
	.byte	$03
	.byte	$03
	.byte	$03
	.byte	$B0
	.byte	$81
	.byte	$06
	.byte	$10
	.byte	$31
	.byte	$30
	.byte	$30
	.byte	$21
	.byte	$11
	.byte	$41
	.byte	$50
	.byte	$05
	.byte	$71
	.byte	$BF
	.byte	$03
	.byte	$03
	.byte	$03
	.byte	$03
	.byte	$03
	.byte	$70
	.byte	$03
	.byte	$70
	.byte	$70
	.byte	$70
	.byte	$70
	.byte	$70
	.byte	$70
	.byte	$03
	.byte	$03
	.byte	$70
	.byte	$70
	.byte	$70
	.byte	$B0
	.byte	$81
	.byte	$02
	.byte	$02
	.byte	$02
	.byte	$02
	.byte	$02
	.byte	$02
	.byte	$02
	.byte	$1E
	.byte	$1F
	.byte	$02
	.byte	$71
	.byte	$9F
	.byte	$03
	.byte	$03
	.byte	$03
	.byte	$03
	.byte	$12
	.byte	$60
	.byte	$60
	.byte	$60
	.byte	$60
	.byte	$60
	.byte	$60
	.byte	$60
	.byte	$60
	.byte	$60
	.byte	$60
	.byte	$60
	.byte	$60
	.byte	$60
	.byte	$90
	.byte	$81
	.byte	$02
	.byte	$02
	.byte	$02
	.byte	$02
	.byte	$02
	.byte	$02
	.byte	$02
	.byte	$2E
	.byte	$2F
	.byte	$02
	.byte	$3C
	.byte	$BF
	.byte	$03
	.byte	$03
	.byte	$03
	.byte	$03
	.byte	$24
	.byte	$60
	.byte	$60
	.byte	$60
	.byte	$60
	.byte	$60
	.byte	$60
	.byte	$60
	.byte	$60
	.byte	$60
	.byte	$60
	.byte	$60
	.byte	$60
	.byte	$60
	.byte	$B0
	.byte	$81
	.byte	$02
	.byte	$02
	.byte	$02
	.byte	$02
	.byte	$02
	.byte	$02
	.byte	$02
	.byte	$3E
	.byte	$3F
	.byte	$02
	.byte	$4C
	.byte	$BF
	.byte	$03
	.byte	$03
	.byte	$03
	.byte	$03
	.byte	$03
	.byte	$24
	.byte	$60
	.byte	$60
	.byte	$60
	.byte	$60
	.byte	$60
	.byte	$60
	.byte	$60
	.byte	$60
	.byte	$60
	.byte	$60
	.byte	$60
	.byte	$75
	.byte	$B0
	.byte	$81
	.byte	$02
	.byte	$02
	.byte	$02
	.byte	$02
	.byte	$02
	.byte	$02
	.byte	$02
	.byte	$4E
	.byte	$4F
	.byte	$02
	.byte	$71
	.byte	$BF
	.byte	$03
	.byte	$70
	.byte	$03
	.byte	$03
	.byte	$03
	.byte	$03
	.byte	$03
	.byte	$61
	.byte	$03
	.byte	$61
	.byte	$24
	.byte	$60
	.byte	$60
	.byte	$60
	.byte	$60
	.byte	$60
	.byte	$75
	.byte	$70
	.byte	$90
	.byte	$81
	.byte	$43
	.byte	$01
	.byte	$09
	.byte	$0A
	.byte	$0B
	.byte	$0B
	.byte	$0C
	.byte	$0D
	.byte	$01
	.byte	$33
	.byte	$71
	.byte	$AF
	.byte	$03
	.byte	$03
	.byte	$03
	.byte	$03
	.byte	$03
	.byte	$03
	.byte	$03
	.byte	$03
	.byte	$03
	.byte	$03
	.byte	$03
	.byte	$61
	.byte	$61
	.byte	$61
	.byte	$61
	.byte	$61
	.byte	$03
	.byte	$03
	.byte	$B0
	.byte	$01
	.byte	$07
	.byte	$08
	.byte	$09
	.byte	$0A
	.byte	$0B
	.byte	$0B
	.byte	$0C
	.byte	$0D
	.byte	$0E
	.byte	$0F
	.byte	$01
	.byte	$BF
	.byte	$03
	.byte	$03
	.byte	$03
	.byte	$70
	.byte	$03
	.byte	$03
	.byte	$03
	.byte	$03
	.byte	$03
	.byte	$03
	.byte	$03
	.byte	$03
	.byte	$03
	.byte	$03
	.byte	$03
	.byte	$03
	.byte	$03
	.byte	$03
	.byte	$80
	.byte	$A2
	.byte	$A3
	.byte	$A4
	.byte	$A5
	.byte	$01
	.byte	$01
	.byte	$01
	.byte	$A9
	.byte	$AA
	.byte	$AB
	.byte	$AC
	.byte	$AD
	.byte	$8D
	.byte	$03
	.byte	$03
	.byte	$03
	.byte	$61
	.byte	$03
	.byte	$03
	.byte	$03
	.byte	$03
	.byte	$03
	.byte	$70
	.byte	$03
	.byte	$03
	.byte	$03
	.byte	$03
	.byte	$03
	.byte	$03
	.byte	$03
	.byte	$03
	.byte	$B1
	.byte	$B2
	.byte	$B3
	.byte	$B4
	.byte	$B5
	.byte	$B6
	.byte	$B7
	.byte	$B8
	.byte	$B9
	.byte	$BA
	.byte	$BB
	.byte	$BC
	.byte	$BD
	.byte	$BE
	.byte	$03
	.byte	$03
	.byte	$03
	.byte	$03
	.byte	$03
	.byte	$03
	.byte	$03
	.byte	$03
	.byte	$03
	.byte	$03
	.byte	$03
	.byte	$03
	.byte	$03
	.byte	$03
	.byte	$03
	.byte	$70
	.byte	$03
	.byte	$03
	.byte	$B0
	.byte	$01
	.byte	$01
	.byte	$82
	.byte	$30
	.byte	$51
	.byte	$31
	.byte	$20
	.byte	$51
	.byte	$20
	.byte	$82
	.byte	$01
	.byte	$01
	.byte	$BF
	.byte	$03
	.byte	$03
	.byte	$03
	.byte	$03
	.byte	$03
	.byte	$03
	.byte	$03
	.byte	$03
	.byte	$03
	.byte	$03
	.byte	$03
	.byte	$03
	.byte	$03
	.byte	$03
	.byte	$03
	.byte	$03
	.byte	$03
	.byte	$03
	.byte	$B0
	.byte	$01
	.byte	$7D
	.byte	$01
	.byte	$01
	.byte	$01
	.byte	$01
	.byte	$01
	.byte	$01
	.byte	$01
	.byte	$01
	.byte	$01
	.byte	$7D
	.byte	$BF
	.byte	$00
	.byte	$00
	.byte	$00
	.byte	$00
	.byte	$00
	.byte	$54
	.byte	$55
	.byte	$11
	.byte	$00
	.byte	$00
	.byte	$00
	.byte	$00
	.byte	$00
	.byte	$45
	.byte	$05
	.byte	$01
	.byte	$00
	.byte	$00
	.byte	$00
	.byte	$00
	.byte	$00
	.byte	$00
	.byte	$00
	.byte	$00
	.byte	$FF
	.byte	$FF
	.byte	$FF
	.byte	$FF
	.byte	$33
	.byte	$A0
	.byte	$A0
	.byte	$20
	.byte	$FA
	.byte	$FE
	.byte	$FE
	.byte	$FE
	.byte	$32
	.byte	$0A
	.byte	$0A
	.byte	$02
	.byte	$FF
	.byte	$FF
	.byte	$FF
	.byte	$FF
	.byte	$33
	.byte	$AA
	.byte	$AA
	.byte	$22
	.byte	$FF
	.byte	$FF
	.byte	$FF
	.byte	$FF
	.byte	$33
	.byte	$00
	.byte	$00
	.byte	$00
	.byte	$0F
	.byte	$0F
	.byte	$0F
	.byte	$0F
	.byte	$03
	.byte	$00
	.byte	$00
	.byte	$00
_background_pal:
	.byte	$2C
	.byte	$05
	.byte	$3D
	.byte	$15
	.byte	$2C
	.byte	$05
	.byte	$37
	.byte	$15
	.byte	$2C
	.byte	$0F
	.byte	$20
	.byte	$11
	.byte	$2C
	.byte	$19
	.byte	$2A
	.byte	$0F
_pal2:
	.byte	$0F
	.byte	$20
	.byte	$16
	.byte	$36
	.byte	$0F
	.byte	$05
	.byte	$16
	.byte	$36
	.byte	$0F
	.byte	$13
	.byte	$0F
	.byte	$36
	.byte	$0F
	.byte	$09
	.byte	$19
	.byte	$29
_talking_time_palete:
	.byte	$0F
	.byte	$20
	.byte	$16
	.byte	$36
	.byte	$0F
	.byte	$05
	.byte	$16
	.byte	$36
	.byte	$0F
	.byte	$13
	.byte	$0F
	.byte	$36
	.byte	$0F
	.byte	$09
	.byte	$19
	.byte	$29
L0CBA:
	.byte	$50,$75,$6C,$6C,$20,$74,$68,$65,$20,$74,$72,$69,$67,$67,$65,$72
	.byte	$20,$68,$61,$6C,$66,$77,$61,$79,$00
L0C52:
	.byte	$50,$75,$6C,$6C,$20,$74,$72,$69,$67,$67,$65,$72,$20,$74,$6F,$20
	.byte	$73,$74,$61,$72,$74,$00
L0CC5:
	.byte	$42,$75,$74,$20,$6E,$6F,$74,$20,$74,$69,$6C,$20,$69,$74,$20,$63
	.byte	$6C,$69,$63,$6B,$73,$00
L0C47:
	.byte	$47,$61,$73,$20,$53,$74,$61,$74,$69,$6F,$6E,$20,$53,$69,$6D,$75
	.byte	$6C,$61,$74,$6F,$72,$00
L0C87:
	.byte	$68,$61,$76,$65,$20,$77,$68,$61,$74,$20,$69,$74,$20,$74,$61,$6B
	.byte	$65,$73,$00
L0CAF:
	.byte	$47,$69,$76,$65,$20,$6D,$65,$20,$32,$20,$67,$61,$6C,$6C,$6F,$6E
	.byte	$73,$21,$00
L0C7D:
	.byte	$59,$6F,$75,$20,$6A,$75,$73,$74,$20,$64,$6F,$6E,$27,$74,$00
L0CA4:
	.byte	$20,$70,$75,$6D,$70,$20,$67,$61,$73,$3F,$21,$3F,$00
L0C9A:
	.byte	$53,$6F,$20,$79,$6F,$75,$20,$77,$61,$6E,$6E,$61,$00
L0C68:
	.byte	$4E,$69,$63,$65,$20,$57,$6F,$72,$6B,$21,$00
L0C73:
	.byte	$48,$6D,$6D,$6D,$6D,$2E,$2E,$2E,$2E,$00

.segment	"BSS"

_bankLevel:
	.res	1,$00
_bankBuffer:
	.res	10,$00
.segment	"ZEROPAGE"
_pad2_zapper:
	.res	1,$00
_zapper_ready:
	.res	1,$00
_hit_detected:
	.res	1,$00
_cost5:
	.res	1,$00
_cost4:
	.res	1,$00
_cost3:
	.res	1,$00
_cost2:
	.res	1,$00
_cost1:
	.res	1,$00
_cost5_changed:
	.res	1,$00
_cost4_changed:
	.res	1,$00
_cost3_changed:
	.res	1,$00
_cost2_changed:
	.res	1,$00
_cost1_changed:
	.res	1,$00
_gas5:
	.res	1,$00
_gas4:
	.res	1,$00
_gas3:
	.res	1,$00
_gas2:
	.res	1,$00
_gas1:
	.res	1,$00
_gas5_changed:
	.res	1,$00
_gas4_changed:
	.res	1,$00
_gas3_changed:
	.res	1,$00
_gas2_changed:
	.res	1,$00
_gas1_changed:
	.res	1,$00
_gas_speed:
	.res	2,$00
_cost_speed:
	.res	2,$00
_pad1:
	.res	1,$00
_pad1_new:
	.res	1,$00
_trigger_pulled:
	.res	1,$00
_trigger_clicked:
	.res	1,$00
_started_pumping:
	.res	1,$00
_sprite_cost:
	.res	1,$00
_cost_sprite:
	.res	1,$00
_game_mode:
	.res	1,$00
_game_level:
	.res	1,$00
_pointer:
	.res	2,$00
_temp1:
	.res	1,$00
_temp2:
	.res	1,$00
_temp3:
	.res	1,$00
_tempint:
	.res	2,$00
_bird_x:
	.res	1,$00
_bird_y:
	.res	1,$00
_address:
	.res	2,$00
_x:
	.res	1,$00
_y:
	.res	1,$00
_num_holder:
	.res	1,$00
_index2:
	.res	1,$00
_largeindex:
	.res	2,$00
_moveframes:
	.res	1,$00
.segment	"XRAM"
_wram_array:
	.res	8192,$00

; ---------------------------------------------------------------
; void __near__ adjust_cost (void)
; ---------------------------------------------------------------

.segment	"CODE"

.proc	_adjust_cost: near

.segment	"CODE"

;
; if(cost1 >= 10){
;
	lda     _cost1
	cmp     #$0A
	bcc     L0D08
;
; cost1_changed = 1;
;
	lda     #$01
	sta     _cost1_changed
;
; cost1 = 0;
;
	lda     #$00
	sta     _cost1
;
; ++cost2;
;
	inc     _cost2
;
; if(cost2 >= 10){
;
	lda     _cost2
	cmp     #$0A
	bcc     L0D08
;
; cost2_changed = 1;
;
	lda     #$01
	sta     _cost2_changed
;
; cost2 = 0;
;
	lda     #$00
	sta     _cost2
;
; ++cost3;
;
	inc     _cost3
;
; if(cost3 >= 10){
;
	lda     _cost3
	cmp     #$0A
	bcc     L0D07
;
; cost3_changed = 1;
;
	lda     #$01
	sta     _cost3_changed
;
; cost3 = 0;
;
	lda     #$00
	sta     _cost3
;
; ++cost4;
;
	inc     _cost4
;
; if(cost4 >= 10) {
;
L0D07:	lda     _cost4
	cmp     #$0A
	bcc     L0D08
;
; cost4_changed = 1;
;
	lda     #$01
	sta     _cost4_changed
;
; cost4 = 0;
;
	lda     #$00
	sta     _cost4
;
; ++cost5;
;
	inc     _cost5
;
; if(cost5 >= 10){ // maximum 9999
;
L0D08:	lda     _cost5
	cmp     #$0A
	bcc     L08A4
;
; cost5 = 9;
;
	lda     #$09
	sta     _cost5
;
; cost4 = 9;
;
	sta     _cost4
;
; cost3 = 9;
;
	sta     _cost3
;
; cost2 = 9;
;
	sta     _cost2
;
; cost1 = 9;
;
	sta     _cost1
;
; }
;
L08A4:	rts

.endproc

; ---------------------------------------------------------------
; void __near__ adjust_gas (void)
; ---------------------------------------------------------------

.segment	"CODE"

.proc	_adjust_gas: near

.segment	"CODE"

;
; if(gas1 >= 10){
;
	lda     _gas1
	cmp     #$0A
	bcc     L0D0A
;
; gas1_changed = 1;
;
	lda     #$01
	sta     _gas1_changed
;
; gas1 = 0;
;
	lda     #$00
	sta     _gas1
;
; ++gas2;
;
	inc     _gas2
;
; if(gas2 >= 10){
;
	lda     _gas2
	cmp     #$0A
	bcc     L0D0A
;
; gas2_changed = 1;
;
	lda     #$01
	sta     _gas2_changed
;
; gas2 = 0;
;
	lda     #$00
	sta     _gas2
;
; ++gas3;
;
	inc     _gas3
;
; if(gas3 >= 10){
;
	lda     _gas3
	cmp     #$0A
	bcc     L0D09
;
; gas3_changed = 1;
;
	lda     #$01
	sta     _gas3_changed
;
; gas3 = 0;
;
	lda     #$00
	sta     _gas3
;
; ++gas4;
;
	inc     _gas4
;
; if(gas4 >= 10) {
;
L0D09:	lda     _gas4
	cmp     #$0A
	bcc     L0D0A
;
; gas4_changed = 1;
;
	lda     #$01
	sta     _gas4_changed
;
; gas4 = 0;
;
	lda     #$00
	sta     _gas4
;
; ++gas5;
;
	inc     _gas5
;
; if(gas5 >= 10){ // maximum 9999
;
L0D0A:	lda     _gas5
	cmp     #$0A
	bcc     L087B
;
; gas5 = 9;
;
	lda     #$09
	sta     _gas5
;
; gas4 = 9;
;
	sta     _gas4
;
; gas3 = 9;
;
	sta     _gas3
;
; gas2 = 9;
;
	sta     _gas2
;
; gas1 = 9;
;
	sta     _gas1
;
; }
;
L087B:	rts

.endproc

; ---------------------------------------------------------------
; void __near__ draw_cost (void)
; ---------------------------------------------------------------

.segment	"CODE"

.proc	_draw_cost: near

.segment	"CODE"

;
; if(cost3_changed){
;
	lda     _cost3_changed
	beq     L08BB
;
; num_holder = cost4;
;
	lda     _cost4
	sta     _num_holder
;
; x=21;
;
	lda     #$15
	sta     _x
;
; y=14;
;
	lda     #$0E
	sta     _y
;
; draw_number_as_bg_tile();
;
	jsr     _draw_number_as_bg_tile
;
; cost3_changed = 0;
;
	lda     #$00
	sta     _cost3_changed
;
; if(cost2_changed){
;
L08BB:	lda     _cost2_changed
	beq     L08C6
;
; num_holder = cost3;
;
	lda     _cost3
	sta     _num_holder
;
; x=23;
;
	lda     #$17
	sta     _x
;
; y=14;
;
	lda     #$0E
	sta     _y
;
; draw_number_as_bg_tile();
;
	jsr     _draw_number_as_bg_tile
;
; cost2_changed = 0;
;
	lda     #$00
	sta     _cost2_changed
;
; if(cost1_changed){
;
L08C6:	lda     _cost1_changed
	beq     L08D1
;
; num_holder = cost2;
;
	lda     _cost2
	sta     _num_holder
;
; x=25;
;
	lda     #$19
	sta     _x
;
; y=14;
;
	lda     #$0E
	sta     _y
;
; draw_number_as_bg_tile();
;
	jsr     _draw_number_as_bg_tile
;
; cost1_changed = 0;
;
	lda     #$00
	sta     _cost1_changed
;
; num_holder = cost1;
;
L08D1:	lda     _cost1
	sta     _num_holder
;
; x=27;
;
	lda     #$1B
	sta     _x
;
; y=14;
;
	lda     #$0E
	sta     _y
;
; draw_number_as_bg_tile();
;
	jmp     _draw_number_as_bg_tile

.endproc

; ---------------------------------------------------------------
; void __near__ draw_gas (void)
; ---------------------------------------------------------------

.segment	"CODE"

.proc	_draw_gas: near

.segment	"CODE"

;
; if(gas3_changed){
;
	lda     _gas3_changed
	beq     L0BE1
;
; num_holder = gas4;
;
	lda     _gas4
	sta     _num_holder
;
; x=21;
;
	lda     #$15
	sta     _x
;
; y=20;
;
	lda     #$14
	sta     _y
;
; draw_number_as_bg_tile();
;
	jsr     _draw_number_as_bg_tile
;
; gas3_changed=0;
;
	lda     #$00
	sta     _gas3_changed
;
; if(gas2_changed){
;
L0BE1:	lda     _gas2_changed
	beq     L0BEC
;
; num_holder = gas3;
;
	lda     _gas3
	sta     _num_holder
;
; x=23;
;
	lda     #$17
	sta     _x
;
; y=20;
;
	lda     #$14
	sta     _y
;
; draw_number_as_bg_tile();
;
	jsr     _draw_number_as_bg_tile
;
; gas2_changed = 0;
;
	lda     #$00
	sta     _gas2_changed
;
; if(gas1_changed){
;
L0BEC:	lda     _gas1_changed
	beq     L0BF7
;
; num_holder = gas2;
;
	lda     _gas2
	sta     _num_holder
;
; x=25;
;
	lda     #$19
	sta     _x
;
; y=20;
;
	lda     #$14
	sta     _y
;
; draw_number_as_bg_tile();
;
	jsr     _draw_number_as_bg_tile
;
; gas1_changed = 0;
;
	lda     #$00
	sta     _gas1_changed
;
; oam_meta_spr(0xc5,0x89,Decimal_1);//decimal for dollars
;
L0BF7:	jsr     decsp2
	lda     #$C5
	ldy     #$01
	sta     (sp),y
	lda     #$89
	dey
	sta     (sp),y
	lda     #<(_Decimal_1)
	ldx     #>(_Decimal_1)
	jsr     _oam_meta_spr
;
; oam_meta_spr(0xc5,0xb9,Decimal_1);//decimal for gas
;
	jsr     decsp2
	lda     #$C5
	ldy     #$01
	sta     (sp),y
	lda     #$B9
	dey
	sta     (sp),y
	lda     #<(_Decimal_1)
	ldx     #>(_Decimal_1)
	jsr     _oam_meta_spr
;
; num_holder = gas1;
;
	lda     _gas1
	sta     _num_holder
;
; x=27;
;
	lda     #$1B
	sta     _x
;
; y=20;
;
	lda     #$14
	sta     _y
;
; draw_number_as_bg_tile();
;
	jmp     _draw_number_as_bg_tile

.endproc

; ---------------------------------------------------------------
; void __near__ read_input (void)
; ---------------------------------------------------------------

.segment	"CODE"

.proc	_read_input: near

.segment	"CODE"

;
; pad1 = pad_poll(0);     // read the first controller
;
	lda     #$00
	jsr     _pad_poll
	sta     _pad1
;
; pad1_new = get_pad_new(0); // newly pressed button. do pad_poll first
;
	lda     #$00
	jsr     _get_pad_new
	sta     _pad1_new
;
; trigger_pulled =  (pad1 & PAD_A) || zap_shoot(0); // controller slot 1 zapper
;
	lda     _pad1
	and     #$80
	bne     L0D0B
	jsr     _zap_shoot
	tax
	beq     L0D0C
L0D0B:	lda     #$01
L0D0C:	sta     _trigger_pulled
;
; trigger_clicked = (pad1_new & PAD_A);
;
	lda     _pad1_new
	and     #$80
	sta     _trigger_clicked
;
; }
;
	rts

.endproc

; ---------------------------------------------------------------
; void __near__ find_sprite (void)
; ---------------------------------------------------------------

.segment	"CODE"

.proc	_find_sprite: near

.segment	"CODE"

;
; switch(sprite_cost) {
;
	lda     _sprite_cost
;
; }
;
	beq     L0C16
	cmp     #$01
	beq     L0C1A
	cmp     #$02
	beq     L0C1E
	cmp     #$03
	beq     L0C22
	cmp     #$04
	beq     L0C26
	cmp     #$05
	beq     L0C2A
	cmp     #$06
	beq     L0C2E
	cmp     #$07
	beq     L0C32
	cmp     #$08
	beq     L0C36
	cmp     #$09
	beq     L0C3A
	rts
;
; pointer = Zero;
;
L0C16:	lda     #>(_Zero)
	sta     _pointer+1
	lda     #<(_Zero)
	sta     _pointer
;
; break;
;
	rts
;
; pointer = One;
;
L0C1A:	lda     #>(_One)
	sta     _pointer+1
	lda     #<(_One)
	sta     _pointer
;
; break;
;
	rts
;
; pointer = Two;
;
L0C1E:	lda     #>(_Two)
	sta     _pointer+1
	lda     #<(_Two)
	sta     _pointer
;
; break;
;
	rts
;
; pointer = Three;
;
L0C22:	lda     #>(_Three)
	sta     _pointer+1
	lda     #<(_Three)
	sta     _pointer
;
; break;
;
	rts
;
; pointer = Four;
;
L0C26:	lda     #>(_Four)
	sta     _pointer+1
	lda     #<(_Four)
	sta     _pointer
;
; break;
;
	rts
;
; pointer = Five;
;
L0C2A:	lda     #>(_Five)
	sta     _pointer+1
	lda     #<(_Five)
	sta     _pointer
;
; break;
;
	rts
;
; pointer = Six;
;
L0C2E:	lda     #>(_Six)
	sta     _pointer+1
	lda     #<(_Six)
	sta     _pointer
;
; break;
;
	rts
;
; pointer = Seven;
;
L0C32:	lda     #>(_Seven)
	sta     _pointer+1
	lda     #<(_Seven)
	sta     _pointer
;
; break;
;
	rts
;
; pointer = Eight;
;
L0C36:	lda     #>(_Eight)
	sta     _pointer+1
	lda     #<(_Eight)
	sta     _pointer
;
; break;
;
	rts
;
; pointer = Nine;
;
L0C3A:	lda     #>(_Nine)
	sta     _pointer+1
	lda     #<(_Nine)
	sta     _pointer
;
; break;
;
	rts

.endproc

; ---------------------------------------------------------------
; void __near__ init_mode_title (void)
; ---------------------------------------------------------------

.segment	"CODE"

.proc	_init_mode_title: near

.segment	"CODE"

;
; ppu_off();  // screen off
;
	jsr     _ppu_off
;
; oam_clear(); // clear all sprites
;
	jsr     _oam_clear
;
; set_chr_bank_0(TALKING_TIME_CHR);
;
	lda     #$02
	jsr     _set_chr_bank_0
;
; set_chr_bank_1(TALKING_TIME_CHR);
;
	lda     #$02
	jsr     _set_chr_bank_1
;
; clear_background();
;
	jsr     _clear_background
;
; multi_vram_buffer_horz("Gas Station Simulator", 21, NTADR_A(4,16)); 
;
	jsr     decsp3
	lda     #<(L0C47)
	ldy     #$01
	sta     (sp),y
	iny
	lda     #>(L0C47)
	sta     (sp),y
	lda     #$15
	ldy     #$00
	sta     (sp),y
	ldx     #$22
	lda     #$04
	jsr     _multi_vram_buffer_horz
;
; flush_vram_update2();
;
	jsr     _flush_vram_update2
;
; multi_vram_buffer_horz("Pull trigger to start", 21, NTADR_A(4,17)); 
;
	jsr     decsp3
	lda     #<(L0C52)
	ldy     #$01
	sta     (sp),y
	iny
	lda     #>(L0C52)
	sta     (sp),y
	lda     #$15
	ldy     #$00
	sta     (sp),y
	ldx     #$22
	lda     #$24
	jsr     _multi_vram_buffer_horz
;
; flush_vram_update2();
;
	jsr     _flush_vram_update2
;
; ppu_on_all(); // turn on screen
;
	jsr     _ppu_on_all
;
; game_mode=MODE_TITLE;
;
	lda     #$00
	sta     _game_mode
;
; game_level=START_OF_GAME;
;
	sta     _game_level
;
; reset_game_variables();
;
	jmp     _reset_game_variables

.endproc

; ---------------------------------------------------------------
; void __near__ init_mode_intro (void)
; ---------------------------------------------------------------

.segment	"CODE"

.proc	_init_mode_intro: near

.segment	"CODE"

;
; ppu_off();  // screen off
;
	jsr     _ppu_off
;
; draw_talking_time_background();
;
	jsr     _draw_talking_time_background
;
; multi_vram_buffer_horz("So you wanna", 12, NTADR_A(15,6)); 
;
	jsr     decsp3
	lda     #<(L0C9A)
	ldy     #$01
	sta     (sp),y
	iny
	lda     #>(L0C9A)
	sta     (sp),y
	lda     #$0C
	ldy     #$00
	sta     (sp),y
	ldx     #$20
	lda     #$CF
	jsr     _multi_vram_buffer_horz
;
; multi_vram_buffer_horz(" pump gas?!?", 12, NTADR_A(15,7)); 
;
	jsr     decsp3
	lda     #<(L0CA4)
	ldy     #$01
	sta     (sp),y
	iny
	lda     #>(L0CA4)
	sta     (sp),y
	lda     #$0C
	ldy     #$00
	sta     (sp),y
	ldx     #$20
	lda     #$EF
	jsr     _multi_vram_buffer_horz
;
; flush_vram_update2();
;
	jsr     _flush_vram_update2
;
; multi_vram_buffer_horz("Give me 2 gallons!", 18, NTADR_A(13,9)); 
;
	jsr     decsp3
	lda     #<(L0CAF)
	ldy     #$01
	sta     (sp),y
	iny
	lda     #>(L0CAF)
	sta     (sp),y
	lda     #$12
	ldy     #$00
	sta     (sp),y
	ldx     #$21
	lda     #$2D
	jsr     _multi_vram_buffer_horz
;
; flush_vram_update2();
;
	jsr     _flush_vram_update2
;
; multi_vram_buffer_horz("Pull the trigger halfway", 24, NTADR_A(4,16)); 
;
	jsr     decsp3
	lda     #<(L0CBA)
	ldy     #$01
	sta     (sp),y
	iny
	lda     #>(L0CBA)
	sta     (sp),y
	lda     #$18
	ldy     #$00
	sta     (sp),y
	ldx     #$22
	lda     #$04
	jsr     _multi_vram_buffer_horz
;
; flush_vram_update2();
;
	jsr     _flush_vram_update2
;
; multi_vram_buffer_horz("But not til it clicks", 21, NTADR_A(4,17)); 
;
	jsr     decsp3
	lda     #<(L0CC5)
	ldy     #$01
	sta     (sp),y
	iny
	lda     #>(L0CC5)
	sta     (sp),y
	lda     #$15
	ldy     #$00
	sta     (sp),y
	ldx     #$22
	lda     #$24
	jsr     _multi_vram_buffer_horz
;
; flush_vram_update2();
;
	jsr     _flush_vram_update2
;
; ppu_on_all(); // turn on screen
;
	jsr     _ppu_on_all
;
; game_mode=MODE_INTRO;
;
	lda     #$03
	sta     _game_mode
;
; } 
;
	rts

.endproc

; ---------------------------------------------------------------
; void __near__ init_mode_game (void)
; ---------------------------------------------------------------

.segment	"CODE"

.proc	_init_mode_game: near

.segment	"CODE"

;
; pal_col(0,0x21);
;
	lda     #$00
	jsr     pusha
	lda     #$21
	jsr     _pal_col
;
; pal_bg(background_pal);
;
	lda     #<(_background_pal)
	ldx     #>(_background_pal)
	jsr     _pal_bg
;
; bird_x = 0;
;
	lda     #$00
	sta     _bird_x
;
; set_chr_bank_0(LEVEL1_BG_CHR);
;
	jsr     _set_chr_bank_0
;
; set_chr_bank_1(LEVEL1_FG_CHR);
;
	lda     #$01
	jsr     _set_chr_bank_1
;
; ppu_off();  // screen off
;
	jsr     _ppu_off
;
; oam_clear(); // clear all sprites
;
	jsr     _oam_clear
;
; index = 0;
;
	lda     #$00
	sta     _index
;
; vram_adr(0x2000); //Nametable A;
;
	ldx     #$20
	jsr     _vram_adr
;
; for(largeindex = 0; largeindex < 1024; ++largeindex){
;
	lda     #$00
	sta     _largeindex
	sta     _largeindex+1
L0CE4:	lda     _largeindex
	cmp     #$00
	lda     _largeindex+1
	sbc     #$04
	bvc     L0CEB
	eor     #$80
L0CEB:	bpl     L0CE5
;
; vram_put(level1[largeindex]);
;
	lda     #<(_level1)
	sta     ptr1
	lda     #>(_level1)
	clc
	adc     _largeindex+1
	sta     ptr1+1
	ldy     _largeindex
	lda     (ptr1),y
	jsr     _vram_put
;
; ++index;
;
	inc     _index
;
; if(index > 40) { //don't put too much in the vram_buffer
;
	lda     _index
	cmp     #$29
	bcc     L0CE6
;
; flush_vram_update2();
;
	jsr     _flush_vram_update2
;
; index = 0;
;
	lda     #$00
	sta     _index
;
; for(largeindex = 0; largeindex < 1024; ++largeindex){
;
L0CE6:	inc     _largeindex
	bne     L0CE4
	inc     _largeindex+1
	jmp     L0CE4
;
; ppu_on_all(); // turn on screen
;
L0CE5:	jsr     _ppu_on_all
;
; game_mode=MODE_GAME;
;
	lda     #$01
	sta     _game_mode
;
; } 
;
	rts

.endproc

; ---------------------------------------------------------------
; void __near__ init_level_one_end (void)
; ---------------------------------------------------------------

.segment	"CODE"

.proc	_init_level_one_end: near

.segment	"CODE"

;
; ppu_off();  // screen off
;
	jsr     _ppu_off
;
; draw_talking_time_background();
;
	jsr     _draw_talking_time_background
;
; if(gas3 == 2){
;
	lda     _gas3
	cmp     #$02
	bne     L0C65
;
; multi_vram_buffer_horz("Nice Work!", 10, NTADR_A(16,5)); 
;
	jsr     decsp3
	lda     #<(L0C68)
	ldy     #$01
	sta     (sp),y
	iny
	lda     #>(L0C68)
	sta     (sp),y
	lda     #$0A
	ldy     #$00
	sta     (sp),y
	ldx     #$20
	lda     #$B0
;
; } else {
;
	jmp     L0D0D
;
; multi_vram_buffer_horz("Hmmmm....", 10, NTADR_A(13,5)); 
;
L0C65:	jsr     decsp3
	lda     #<(L0C73)
	ldy     #$01
	sta     (sp),y
	iny
	lda     #>(L0C73)
	sta     (sp),y
	lda     #$0A
	ldy     #$00
	sta     (sp),y
	ldx     #$20
	lda     #$AD
	jsr     _multi_vram_buffer_horz
;
; multi_vram_buffer_horz("You just don't", 14, NTADR_A(13,6)); 
;
	jsr     decsp3
	lda     #<(L0C7D)
	ldy     #$01
	sta     (sp),y
	iny
	lda     #>(L0C7D)
	sta     (sp),y
	lda     #$0E
	ldy     #$00
	sta     (sp),y
	ldx     #$20
	lda     #$CD
	jsr     _multi_vram_buffer_horz
;
; multi_vram_buffer_horz("have what it takes", 18, NTADR_A(13,7)); 
;
	jsr     decsp3
	lda     #<(L0C87)
	ldy     #$01
	sta     (sp),y
	iny
	lda     #>(L0C87)
	sta     (sp),y
	lda     #$12
	ldy     #$00
	sta     (sp),y
	ldx     #$20
	lda     #$ED
L0D0D:	jsr     _multi_vram_buffer_horz
;
; flush_vram_update2();
;
	jsr     _flush_vram_update2
;
; ppu_on_all(); // turn on screen
;
	jsr     _ppu_on_all
;
; game_mode=MODE_TALKING_TIME;
;
	lda     #$05
	sta     _game_mode
;
; game_level=LEVEL_ONE_COMPLETE;
;
	lda     #$01
	sta     _game_level
;
; } 
;
	rts

.endproc

; ---------------------------------------------------------------
; void __near__ draw_number_as_bg_tile (void)
; ---------------------------------------------------------------

.segment	"CODE"

.proc	_draw_number_as_bg_tile: near

.segment	"CODE"

;
; switch(num_holder) {
;
	lda     _num_holder
;
; }
;
	jeq     L0B94
	cmp     #$01
	beq     L08E8
	cmp     #$02
	jeq     L0934
	cmp     #$03
	jeq     L0980
	cmp     #$04
	jeq     L09CC
	cmp     #$05
	jeq     L0A18
	cmp     #$06
	jeq     L0A64
	cmp     #$07
	jeq     L0AB0
	cmp     #$08
	jeq     L0AFC
	cmp     #$09
	jeq     L0B48
	rts
;
; one_vram_buffer(0xc0, NTADR_A(x,y));
;
L08E8:	lda     #$C0
	jsr     pusha
	ldx     #$00
	lda     _y
	jsr     aslax4
	stx     tmp1
	asl     a
	rol     tmp1
	sta     ptr1
	lda     _x
	ora     ptr1
	pha
	lda     tmp1
	ora     #$20
	tax
	pla
	jsr     _one_vram_buffer
;
; one_vram_buffer(0xc1, NTADR_A(x+1,y));
;
	lda     #$C1
	jsr     pusha
	ldx     #$00
	lda     _y
	jsr     aslax4
	stx     tmp1
	asl     a
	rol     tmp1
	sta     ptr1
	ldx     #$00
	lda     _x
	clc
	adc     #$01
	bcc     L08F9
	inx
L08F9:	ora     ptr1
	pha
	txa
	ora     tmp1
	tax
	pla
	pha
	txa
	ora     #$20
	tax
	pla
	jsr     _one_vram_buffer
;
; one_vram_buffer(0xd0, NTADR_A(x, y+1));
;
	lda     #$D0
	jsr     pusha
	ldx     #$00
	lda     _y
	clc
	adc     #$01
	bcc     L0901
	inx
L0901:	jsr     shlax4
	stx     tmp1
	asl     a
	rol     tmp1
	sta     ptr1
	lda     _x
	ora     ptr1
	pha
	lda     tmp1
	ora     #$20
	tax
	pla
	jsr     _one_vram_buffer
;
; one_vram_buffer(0xd1, NTADR_A(x+1, y+1));
;
	lda     #$D1
	jsr     pusha
	ldx     #$00
	lda     _y
	clc
	adc     #$01
	bcc     L090A
	inx
L090A:	jsr     shlax4
	stx     tmp1
	asl     a
	rol     tmp1
	sta     ptr1
	ldx     #$00
	lda     _x
	clc
	adc     #$01
	bcc     L090C
	inx
L090C:	ora     ptr1
	pha
	txa
	ora     tmp1
	tax
	pla
	pha
	txa
	ora     #$20
	tax
	pla
	jsr     _one_vram_buffer
;
; one_vram_buffer(0xe0, NTADR_A(x,y+2));
;
	lda     #$E0
	jsr     pusha
	ldx     #$00
	lda     _y
	clc
	adc     #$02
	bcc     L0914
	inx
L0914:	jsr     shlax4
	stx     tmp1
	asl     a
	rol     tmp1
	sta     ptr1
	lda     _x
	ora     ptr1
	pha
	lda     tmp1
	ora     #$20
	tax
	pla
	jsr     _one_vram_buffer
;
; one_vram_buffer(0xe1, NTADR_A(x+1,y+2));
;
	lda     #$E1
	jsr     pusha
	ldx     #$00
	lda     _y
	clc
	adc     #$02
	bcc     L091D
	inx
L091D:	jsr     shlax4
	stx     tmp1
	asl     a
	rol     tmp1
	sta     ptr1
	ldx     #$00
	lda     _x
	clc
	adc     #$01
	bcc     L091F
	inx
L091F:	ora     ptr1
	pha
	txa
	ora     tmp1
	tax
	pla
	pha
	txa
	ora     #$20
	tax
	pla
	jsr     _one_vram_buffer
;
; one_vram_buffer(0xf0, NTADR_A(x,y+3));
;
	lda     #$F0
	jsr     pusha
	ldx     #$00
	lda     _y
	clc
	adc     #$03
	bcc     L0927
	inx
L0927:	jsr     shlax4
	stx     tmp1
	asl     a
	rol     tmp1
	sta     ptr1
	lda     _x
	ora     ptr1
	pha
	lda     tmp1
	ora     #$20
	tax
	pla
	jsr     _one_vram_buffer
;
; one_vram_buffer(0xf1, NTADR_A(x+1,y+3));
;
	lda     #$F1
	jsr     pusha
	ldx     #$00
	lda     _y
	clc
	adc     #$03
	bcc     L0930
	inx
L0930:	jsr     shlax4
	stx     tmp1
	asl     a
	rol     tmp1
	sta     ptr1
	ldx     #$00
	lda     _x
	clc
	adc     #$01
	bcc     L0932
	inx
L0932:	ora     ptr1
	pha
	txa
	ora     tmp1
	tax
	pla
	pha
	txa
	ora     #$20
	tax
	pla
	jmp     _one_vram_buffer
;
; one_vram_buffer(0xc2, NTADR_A(x,y));
;
L0934:	lda     #$C2
	jsr     pusha
	ldx     #$00
	lda     _y
	jsr     aslax4
	stx     tmp1
	asl     a
	rol     tmp1
	sta     ptr1
	lda     _x
	ora     ptr1
	pha
	lda     tmp1
	ora     #$20
	tax
	pla
	jsr     _one_vram_buffer
;
; one_vram_buffer(0xc3, NTADR_A(x+1,y));
;
	lda     #$C3
	jsr     pusha
	ldx     #$00
	lda     _y
	jsr     aslax4
	stx     tmp1
	asl     a
	rol     tmp1
	sta     ptr1
	ldx     #$00
	lda     _x
	clc
	adc     #$01
	bcc     L0945
	inx
L0945:	ora     ptr1
	pha
	txa
	ora     tmp1
	tax
	pla
	pha
	txa
	ora     #$20
	tax
	pla
	jsr     _one_vram_buffer
;
; one_vram_buffer(0xd2, NTADR_A(x, y+1));
;
	lda     #$D2
	jsr     pusha
	ldx     #$00
	lda     _y
	clc
	adc     #$01
	bcc     L094D
	inx
L094D:	jsr     shlax4
	stx     tmp1
	asl     a
	rol     tmp1
	sta     ptr1
	lda     _x
	ora     ptr1
	pha
	lda     tmp1
	ora     #$20
	tax
	pla
	jsr     _one_vram_buffer
;
; one_vram_buffer(0xd3, NTADR_A(x+1, y+1));
;
	lda     #$D3
	jsr     pusha
	ldx     #$00
	lda     _y
	clc
	adc     #$01
	bcc     L0956
	inx
L0956:	jsr     shlax4
	stx     tmp1
	asl     a
	rol     tmp1
	sta     ptr1
	ldx     #$00
	lda     _x
	clc
	adc     #$01
	bcc     L0958
	inx
L0958:	ora     ptr1
	pha
	txa
	ora     tmp1
	tax
	pla
	pha
	txa
	ora     #$20
	tax
	pla
	jsr     _one_vram_buffer
;
; one_vram_buffer(0xe2, NTADR_A(x,y+2));
;
	lda     #$E2
	jsr     pusha
	ldx     #$00
	lda     _y
	clc
	adc     #$02
	bcc     L0960
	inx
L0960:	jsr     shlax4
	stx     tmp1
	asl     a
	rol     tmp1
	sta     ptr1
	lda     _x
	ora     ptr1
	pha
	lda     tmp1
	ora     #$20
	tax
	pla
	jsr     _one_vram_buffer
;
; one_vram_buffer(0xe3, NTADR_A(x+1,y+2));
;
	lda     #$E3
	jsr     pusha
	ldx     #$00
	lda     _y
	clc
	adc     #$02
	bcc     L0969
	inx
L0969:	jsr     shlax4
	stx     tmp1
	asl     a
	rol     tmp1
	sta     ptr1
	ldx     #$00
	lda     _x
	clc
	adc     #$01
	bcc     L096B
	inx
L096B:	ora     ptr1
	pha
	txa
	ora     tmp1
	tax
	pla
	pha
	txa
	ora     #$20
	tax
	pla
	jsr     _one_vram_buffer
;
; one_vram_buffer(0xf2, NTADR_A(x,y+3));
;
	lda     #$F2
	jsr     pusha
	ldx     #$00
	lda     _y
	clc
	adc     #$03
	bcc     L0973
	inx
L0973:	jsr     shlax4
	stx     tmp1
	asl     a
	rol     tmp1
	sta     ptr1
	lda     _x
	ora     ptr1
	pha
	lda     tmp1
	ora     #$20
	tax
	pla
	jsr     _one_vram_buffer
;
; one_vram_buffer(0xf3, NTADR_A(x+1,y+3));
;
	lda     #$F3
	jsr     pusha
	ldx     #$00
	lda     _y
	clc
	adc     #$03
	bcc     L097C
	inx
L097C:	jsr     shlax4
	stx     tmp1
	asl     a
	rol     tmp1
	sta     ptr1
	ldx     #$00
	lda     _x
	clc
	adc     #$01
	bcc     L097E
	inx
L097E:	ora     ptr1
	pha
	txa
	ora     tmp1
	tax
	pla
	pha
	txa
	ora     #$20
	tax
	pla
	jmp     _one_vram_buffer
;
; one_vram_buffer(0xc4, NTADR_A(x,y));
;
L0980:	lda     #$C4
	jsr     pusha
	ldx     #$00
	lda     _y
	jsr     aslax4
	stx     tmp1
	asl     a
	rol     tmp1
	sta     ptr1
	lda     _x
	ora     ptr1
	pha
	lda     tmp1
	ora     #$20
	tax
	pla
	jsr     _one_vram_buffer
;
; one_vram_buffer(0xc5, NTADR_A(x+1,y));
;
	lda     #$C5
	jsr     pusha
	ldx     #$00
	lda     _y
	jsr     aslax4
	stx     tmp1
	asl     a
	rol     tmp1
	sta     ptr1
	ldx     #$00
	lda     _x
	clc
	adc     #$01
	bcc     L0991
	inx
L0991:	ora     ptr1
	pha
	txa
	ora     tmp1
	tax
	pla
	pha
	txa
	ora     #$20
	tax
	pla
	jsr     _one_vram_buffer
;
; one_vram_buffer(0xd4, NTADR_A(x, y+1));
;
	lda     #$D4
	jsr     pusha
	ldx     #$00
	lda     _y
	clc
	adc     #$01
	bcc     L0999
	inx
L0999:	jsr     shlax4
	stx     tmp1
	asl     a
	rol     tmp1
	sta     ptr1
	lda     _x
	ora     ptr1
	pha
	lda     tmp1
	ora     #$20
	tax
	pla
	jsr     _one_vram_buffer
;
; one_vram_buffer(0xd5, NTADR_A(x+1, y+1));
;
	lda     #$D5
	jsr     pusha
	ldx     #$00
	lda     _y
	clc
	adc     #$01
	bcc     L09A2
	inx
L09A2:	jsr     shlax4
	stx     tmp1
	asl     a
	rol     tmp1
	sta     ptr1
	ldx     #$00
	lda     _x
	clc
	adc     #$01
	bcc     L09A4
	inx
L09A4:	ora     ptr1
	pha
	txa
	ora     tmp1
	tax
	pla
	pha
	txa
	ora     #$20
	tax
	pla
	jsr     _one_vram_buffer
;
; one_vram_buffer(0xe4, NTADR_A(x,y+2));
;
	lda     #$E4
	jsr     pusha
	ldx     #$00
	lda     _y
	clc
	adc     #$02
	bcc     L09AC
	inx
L09AC:	jsr     shlax4
	stx     tmp1
	asl     a
	rol     tmp1
	sta     ptr1
	lda     _x
	ora     ptr1
	pha
	lda     tmp1
	ora     #$20
	tax
	pla
	jsr     _one_vram_buffer
;
; one_vram_buffer(0xe5, NTADR_A(x+1,y+2));
;
	lda     #$E5
	jsr     pusha
	ldx     #$00
	lda     _y
	clc
	adc     #$02
	bcc     L09B5
	inx
L09B5:	jsr     shlax4
	stx     tmp1
	asl     a
	rol     tmp1
	sta     ptr1
	ldx     #$00
	lda     _x
	clc
	adc     #$01
	bcc     L09B7
	inx
L09B7:	ora     ptr1
	pha
	txa
	ora     tmp1
	tax
	pla
	pha
	txa
	ora     #$20
	tax
	pla
	jsr     _one_vram_buffer
;
; one_vram_buffer(0xf4, NTADR_A(x,y+3));
;
	lda     #$F4
	jsr     pusha
	ldx     #$00
	lda     _y
	clc
	adc     #$03
	bcc     L09BF
	inx
L09BF:	jsr     shlax4
	stx     tmp1
	asl     a
	rol     tmp1
	sta     ptr1
	lda     _x
	ora     ptr1
	pha
	lda     tmp1
	ora     #$20
	tax
	pla
	jsr     _one_vram_buffer
;
; one_vram_buffer(0xf5, NTADR_A(x+1,y+3));
;
	lda     #$F5
	jsr     pusha
	ldx     #$00
	lda     _y
	clc
	adc     #$03
	bcc     L09C8
	inx
L09C8:	jsr     shlax4
	stx     tmp1
	asl     a
	rol     tmp1
	sta     ptr1
	ldx     #$00
	lda     _x
	clc
	adc     #$01
	bcc     L09CA
	inx
L09CA:	ora     ptr1
	pha
	txa
	ora     tmp1
	tax
	pla
	pha
	txa
	ora     #$20
	tax
	pla
	jmp     _one_vram_buffer
;
; one_vram_buffer(0xc6, NTADR_A(x,y));
;
L09CC:	lda     #$C6
	jsr     pusha
	ldx     #$00
	lda     _y
	jsr     aslax4
	stx     tmp1
	asl     a
	rol     tmp1
	sta     ptr1
	lda     _x
	ora     ptr1
	pha
	lda     tmp1
	ora     #$20
	tax
	pla
	jsr     _one_vram_buffer
;
; one_vram_buffer(0xc7, NTADR_A(x+1,y));
;
	lda     #$C7
	jsr     pusha
	ldx     #$00
	lda     _y
	jsr     aslax4
	stx     tmp1
	asl     a
	rol     tmp1
	sta     ptr1
	ldx     #$00
	lda     _x
	clc
	adc     #$01
	bcc     L09DD
	inx
L09DD:	ora     ptr1
	pha
	txa
	ora     tmp1
	tax
	pla
	pha
	txa
	ora     #$20
	tax
	pla
	jsr     _one_vram_buffer
;
; one_vram_buffer(0xd6, NTADR_A(x, y+1));
;
	lda     #$D6
	jsr     pusha
	ldx     #$00
	lda     _y
	clc
	adc     #$01
	bcc     L09E5
	inx
L09E5:	jsr     shlax4
	stx     tmp1
	asl     a
	rol     tmp1
	sta     ptr1
	lda     _x
	ora     ptr1
	pha
	lda     tmp1
	ora     #$20
	tax
	pla
	jsr     _one_vram_buffer
;
; one_vram_buffer(0xd7, NTADR_A(x+1, y+1));
;
	lda     #$D7
	jsr     pusha
	ldx     #$00
	lda     _y
	clc
	adc     #$01
	bcc     L09EE
	inx
L09EE:	jsr     shlax4
	stx     tmp1
	asl     a
	rol     tmp1
	sta     ptr1
	ldx     #$00
	lda     _x
	clc
	adc     #$01
	bcc     L09F0
	inx
L09F0:	ora     ptr1
	pha
	txa
	ora     tmp1
	tax
	pla
	pha
	txa
	ora     #$20
	tax
	pla
	jsr     _one_vram_buffer
;
; one_vram_buffer(0xe6, NTADR_A(x,y+2));
;
	lda     #$E6
	jsr     pusha
	ldx     #$00
	lda     _y
	clc
	adc     #$02
	bcc     L09F8
	inx
L09F8:	jsr     shlax4
	stx     tmp1
	asl     a
	rol     tmp1
	sta     ptr1
	lda     _x
	ora     ptr1
	pha
	lda     tmp1
	ora     #$20
	tax
	pla
	jsr     _one_vram_buffer
;
; one_vram_buffer(0xe7, NTADR_A(x+1,y+2));
;
	lda     #$E7
	jsr     pusha
	ldx     #$00
	lda     _y
	clc
	adc     #$02
	bcc     L0A01
	inx
L0A01:	jsr     shlax4
	stx     tmp1
	asl     a
	rol     tmp1
	sta     ptr1
	ldx     #$00
	lda     _x
	clc
	adc     #$01
	bcc     L0A03
	inx
L0A03:	ora     ptr1
	pha
	txa
	ora     tmp1
	tax
	pla
	pha
	txa
	ora     #$20
	tax
	pla
	jsr     _one_vram_buffer
;
; one_vram_buffer(0xf6, NTADR_A(x,y+3));
;
	lda     #$F6
	jsr     pusha
	ldx     #$00
	lda     _y
	clc
	adc     #$03
	bcc     L0A0B
	inx
L0A0B:	jsr     shlax4
	stx     tmp1
	asl     a
	rol     tmp1
	sta     ptr1
	lda     _x
	ora     ptr1
	pha
	lda     tmp1
	ora     #$20
	tax
	pla
	jsr     _one_vram_buffer
;
; one_vram_buffer(0xf7, NTADR_A(x+1,y+3));
;
	lda     #$F7
	jsr     pusha
	ldx     #$00
	lda     _y
	clc
	adc     #$03
	bcc     L0A14
	inx
L0A14:	jsr     shlax4
	stx     tmp1
	asl     a
	rol     tmp1
	sta     ptr1
	ldx     #$00
	lda     _x
	clc
	adc     #$01
	bcc     L0A16
	inx
L0A16:	ora     ptr1
	pha
	txa
	ora     tmp1
	tax
	pla
	pha
	txa
	ora     #$20
	tax
	pla
	jmp     _one_vram_buffer
;
; one_vram_buffer(0xc8, NTADR_A(x,y));
;
L0A18:	lda     #$C8
	jsr     pusha
	ldx     #$00
	lda     _y
	jsr     aslax4
	stx     tmp1
	asl     a
	rol     tmp1
	sta     ptr1
	lda     _x
	ora     ptr1
	pha
	lda     tmp1
	ora     #$20
	tax
	pla
	jsr     _one_vram_buffer
;
; one_vram_buffer(0xc9, NTADR_A(x+1,y));
;
	lda     #$C9
	jsr     pusha
	ldx     #$00
	lda     _y
	jsr     aslax4
	stx     tmp1
	asl     a
	rol     tmp1
	sta     ptr1
	ldx     #$00
	lda     _x
	clc
	adc     #$01
	bcc     L0A29
	inx
L0A29:	ora     ptr1
	pha
	txa
	ora     tmp1
	tax
	pla
	pha
	txa
	ora     #$20
	tax
	pla
	jsr     _one_vram_buffer
;
; one_vram_buffer(0xd8, NTADR_A(x, y+1));
;
	lda     #$D8
	jsr     pusha
	ldx     #$00
	lda     _y
	clc
	adc     #$01
	bcc     L0A31
	inx
L0A31:	jsr     shlax4
	stx     tmp1
	asl     a
	rol     tmp1
	sta     ptr1
	lda     _x
	ora     ptr1
	pha
	lda     tmp1
	ora     #$20
	tax
	pla
	jsr     _one_vram_buffer
;
; one_vram_buffer(0xd9, NTADR_A(x+1, y+1));
;
	lda     #$D9
	jsr     pusha
	ldx     #$00
	lda     _y
	clc
	adc     #$01
	bcc     L0A3A
	inx
L0A3A:	jsr     shlax4
	stx     tmp1
	asl     a
	rol     tmp1
	sta     ptr1
	ldx     #$00
	lda     _x
	clc
	adc     #$01
	bcc     L0A3C
	inx
L0A3C:	ora     ptr1
	pha
	txa
	ora     tmp1
	tax
	pla
	pha
	txa
	ora     #$20
	tax
	pla
	jsr     _one_vram_buffer
;
; one_vram_buffer(0xe8, NTADR_A(x,y+2));
;
	lda     #$E8
	jsr     pusha
	ldx     #$00
	lda     _y
	clc
	adc     #$02
	bcc     L0A44
	inx
L0A44:	jsr     shlax4
	stx     tmp1
	asl     a
	rol     tmp1
	sta     ptr1
	lda     _x
	ora     ptr1
	pha
	lda     tmp1
	ora     #$20
	tax
	pla
	jsr     _one_vram_buffer
;
; one_vram_buffer(0xe9, NTADR_A(x+1,y+2));
;
	lda     #$E9
	jsr     pusha
	ldx     #$00
	lda     _y
	clc
	adc     #$02
	bcc     L0A4D
	inx
L0A4D:	jsr     shlax4
	stx     tmp1
	asl     a
	rol     tmp1
	sta     ptr1
	ldx     #$00
	lda     _x
	clc
	adc     #$01
	bcc     L0A4F
	inx
L0A4F:	ora     ptr1
	pha
	txa
	ora     tmp1
	tax
	pla
	pha
	txa
	ora     #$20
	tax
	pla
	jsr     _one_vram_buffer
;
; one_vram_buffer(0xf8, NTADR_A(x,y+3));
;
	lda     #$F8
	jsr     pusha
	ldx     #$00
	lda     _y
	clc
	adc     #$03
	bcc     L0A57
	inx
L0A57:	jsr     shlax4
	stx     tmp1
	asl     a
	rol     tmp1
	sta     ptr1
	lda     _x
	ora     ptr1
	pha
	lda     tmp1
	ora     #$20
	tax
	pla
	jsr     _one_vram_buffer
;
; one_vram_buffer(0xf9, NTADR_A(x+1,y+3));
;
	lda     #$F9
	jsr     pusha
	ldx     #$00
	lda     _y
	clc
	adc     #$03
	bcc     L0A60
	inx
L0A60:	jsr     shlax4
	stx     tmp1
	asl     a
	rol     tmp1
	sta     ptr1
	ldx     #$00
	lda     _x
	clc
	adc     #$01
	bcc     L0A62
	inx
L0A62:	ora     ptr1
	pha
	txa
	ora     tmp1
	tax
	pla
	pha
	txa
	ora     #$20
	tax
	pla
	jmp     _one_vram_buffer
;
; one_vram_buffer(0xca, NTADR_A(x,y));
;
L0A64:	lda     #$CA
	jsr     pusha
	ldx     #$00
	lda     _y
	jsr     aslax4
	stx     tmp1
	asl     a
	rol     tmp1
	sta     ptr1
	lda     _x
	ora     ptr1
	pha
	lda     tmp1
	ora     #$20
	tax
	pla
	jsr     _one_vram_buffer
;
; one_vram_buffer(0xcb, NTADR_A(x+1,y));
;
	lda     #$CB
	jsr     pusha
	ldx     #$00
	lda     _y
	jsr     aslax4
	stx     tmp1
	asl     a
	rol     tmp1
	sta     ptr1
	ldx     #$00
	lda     _x
	clc
	adc     #$01
	bcc     L0A75
	inx
L0A75:	ora     ptr1
	pha
	txa
	ora     tmp1
	tax
	pla
	pha
	txa
	ora     #$20
	tax
	pla
	jsr     _one_vram_buffer
;
; one_vram_buffer(0xda, NTADR_A(x, y+1));
;
	lda     #$DA
	jsr     pusha
	ldx     #$00
	lda     _y
	clc
	adc     #$01
	bcc     L0A7D
	inx
L0A7D:	jsr     shlax4
	stx     tmp1
	asl     a
	rol     tmp1
	sta     ptr1
	lda     _x
	ora     ptr1
	pha
	lda     tmp1
	ora     #$20
	tax
	pla
	jsr     _one_vram_buffer
;
; one_vram_buffer(0xdb, NTADR_A(x+1, y+1));
;
	lda     #$DB
	jsr     pusha
	ldx     #$00
	lda     _y
	clc
	adc     #$01
	bcc     L0A86
	inx
L0A86:	jsr     shlax4
	stx     tmp1
	asl     a
	rol     tmp1
	sta     ptr1
	ldx     #$00
	lda     _x
	clc
	adc     #$01
	bcc     L0A88
	inx
L0A88:	ora     ptr1
	pha
	txa
	ora     tmp1
	tax
	pla
	pha
	txa
	ora     #$20
	tax
	pla
	jsr     _one_vram_buffer
;
; one_vram_buffer(0xea, NTADR_A(x,y+2));
;
	lda     #$EA
	jsr     pusha
	ldx     #$00
	lda     _y
	clc
	adc     #$02
	bcc     L0A90
	inx
L0A90:	jsr     shlax4
	stx     tmp1
	asl     a
	rol     tmp1
	sta     ptr1
	lda     _x
	ora     ptr1
	pha
	lda     tmp1
	ora     #$20
	tax
	pla
	jsr     _one_vram_buffer
;
; one_vram_buffer(0xeb, NTADR_A(x+1,y+2));
;
	lda     #$EB
	jsr     pusha
	ldx     #$00
	lda     _y
	clc
	adc     #$02
	bcc     L0A99
	inx
L0A99:	jsr     shlax4
	stx     tmp1
	asl     a
	rol     tmp1
	sta     ptr1
	ldx     #$00
	lda     _x
	clc
	adc     #$01
	bcc     L0A9B
	inx
L0A9B:	ora     ptr1
	pha
	txa
	ora     tmp1
	tax
	pla
	pha
	txa
	ora     #$20
	tax
	pla
	jsr     _one_vram_buffer
;
; one_vram_buffer(0xfa, NTADR_A(x,y+3));
;
	lda     #$FA
	jsr     pusha
	ldx     #$00
	lda     _y
	clc
	adc     #$03
	bcc     L0AA3
	inx
L0AA3:	jsr     shlax4
	stx     tmp1
	asl     a
	rol     tmp1
	sta     ptr1
	lda     _x
	ora     ptr1
	pha
	lda     tmp1
	ora     #$20
	tax
	pla
	jsr     _one_vram_buffer
;
; one_vram_buffer(0xfb, NTADR_A(x+1,y+3));
;
	lda     #$FB
	jsr     pusha
	ldx     #$00
	lda     _y
	clc
	adc     #$03
	bcc     L0AAC
	inx
L0AAC:	jsr     shlax4
	stx     tmp1
	asl     a
	rol     tmp1
	sta     ptr1
	ldx     #$00
	lda     _x
	clc
	adc     #$01
	bcc     L0AAE
	inx
L0AAE:	ora     ptr1
	pha
	txa
	ora     tmp1
	tax
	pla
	pha
	txa
	ora     #$20
	tax
	pla
	jmp     _one_vram_buffer
;
; one_vram_buffer(0xcc, NTADR_A(x,y));
;
L0AB0:	lda     #$CC
	jsr     pusha
	ldx     #$00
	lda     _y
	jsr     aslax4
	stx     tmp1
	asl     a
	rol     tmp1
	sta     ptr1
	lda     _x
	ora     ptr1
	pha
	lda     tmp1
	ora     #$20
	tax
	pla
	jsr     _one_vram_buffer
;
; one_vram_buffer(0xcd, NTADR_A(x+1,y));
;
	lda     #$CD
	jsr     pusha
	ldx     #$00
	lda     _y
	jsr     aslax4
	stx     tmp1
	asl     a
	rol     tmp1
	sta     ptr1
	ldx     #$00
	lda     _x
	clc
	adc     #$01
	bcc     L0AC1
	inx
L0AC1:	ora     ptr1
	pha
	txa
	ora     tmp1
	tax
	pla
	pha
	txa
	ora     #$20
	tax
	pla
	jsr     _one_vram_buffer
;
; one_vram_buffer(0xdc, NTADR_A(x, y+1));
;
	lda     #$DC
	jsr     pusha
	ldx     #$00
	lda     _y
	clc
	adc     #$01
	bcc     L0AC9
	inx
L0AC9:	jsr     shlax4
	stx     tmp1
	asl     a
	rol     tmp1
	sta     ptr1
	lda     _x
	ora     ptr1
	pha
	lda     tmp1
	ora     #$20
	tax
	pla
	jsr     _one_vram_buffer
;
; one_vram_buffer(0xdd, NTADR_A(x+1, y+1));
;
	lda     #$DD
	jsr     pusha
	ldx     #$00
	lda     _y
	clc
	adc     #$01
	bcc     L0AD2
	inx
L0AD2:	jsr     shlax4
	stx     tmp1
	asl     a
	rol     tmp1
	sta     ptr1
	ldx     #$00
	lda     _x
	clc
	adc     #$01
	bcc     L0AD4
	inx
L0AD4:	ora     ptr1
	pha
	txa
	ora     tmp1
	tax
	pla
	pha
	txa
	ora     #$20
	tax
	pla
	jsr     _one_vram_buffer
;
; one_vram_buffer(0xec, NTADR_A(x,y+2));
;
	lda     #$EC
	jsr     pusha
	ldx     #$00
	lda     _y
	clc
	adc     #$02
	bcc     L0ADC
	inx
L0ADC:	jsr     shlax4
	stx     tmp1
	asl     a
	rol     tmp1
	sta     ptr1
	lda     _x
	ora     ptr1
	pha
	lda     tmp1
	ora     #$20
	tax
	pla
	jsr     _one_vram_buffer
;
; one_vram_buffer(0xed, NTADR_A(x+1,y+2));
;
	lda     #$ED
	jsr     pusha
	ldx     #$00
	lda     _y
	clc
	adc     #$02
	bcc     L0AE5
	inx
L0AE5:	jsr     shlax4
	stx     tmp1
	asl     a
	rol     tmp1
	sta     ptr1
	ldx     #$00
	lda     _x
	clc
	adc     #$01
	bcc     L0AE7
	inx
L0AE7:	ora     ptr1
	pha
	txa
	ora     tmp1
	tax
	pla
	pha
	txa
	ora     #$20
	tax
	pla
	jsr     _one_vram_buffer
;
; one_vram_buffer(0xfc, NTADR_A(x,y+3));
;
	lda     #$FC
	jsr     pusha
	ldx     #$00
	lda     _y
	clc
	adc     #$03
	bcc     L0AEF
	inx
L0AEF:	jsr     shlax4
	stx     tmp1
	asl     a
	rol     tmp1
	sta     ptr1
	lda     _x
	ora     ptr1
	pha
	lda     tmp1
	ora     #$20
	tax
	pla
	jsr     _one_vram_buffer
;
; one_vram_buffer(0xfd, NTADR_A(x+1,y+3));
;
	lda     #$FD
	jsr     pusha
	ldx     #$00
	lda     _y
	clc
	adc     #$03
	bcc     L0AF8
	inx
L0AF8:	jsr     shlax4
	stx     tmp1
	asl     a
	rol     tmp1
	sta     ptr1
	ldx     #$00
	lda     _x
	clc
	adc     #$01
	bcc     L0AFA
	inx
L0AFA:	ora     ptr1
	pha
	txa
	ora     tmp1
	tax
	pla
	pha
	txa
	ora     #$20
	tax
	pla
	jmp     _one_vram_buffer
;
; one_vram_buffer(0xce, NTADR_A(x,y));
;
L0AFC:	lda     #$CE
	jsr     pusha
	ldx     #$00
	lda     _y
	jsr     aslax4
	stx     tmp1
	asl     a
	rol     tmp1
	sta     ptr1
	lda     _x
	ora     ptr1
	pha
	lda     tmp1
	ora     #$20
	tax
	pla
	jsr     _one_vram_buffer
;
; one_vram_buffer(0xcf, NTADR_A(x+1,y));
;
	lda     #$CF
	jsr     pusha
	ldx     #$00
	lda     _y
	jsr     aslax4
	stx     tmp1
	asl     a
	rol     tmp1
	sta     ptr1
	ldx     #$00
	lda     _x
	clc
	adc     #$01
	bcc     L0B0D
	inx
L0B0D:	ora     ptr1
	pha
	txa
	ora     tmp1
	tax
	pla
	pha
	txa
	ora     #$20
	tax
	pla
	jsr     _one_vram_buffer
;
; one_vram_buffer(0xde, NTADR_A(x, y+1));
;
	lda     #$DE
	jsr     pusha
	ldx     #$00
	lda     _y
	clc
	adc     #$01
	bcc     L0B15
	inx
L0B15:	jsr     shlax4
	stx     tmp1
	asl     a
	rol     tmp1
	sta     ptr1
	lda     _x
	ora     ptr1
	pha
	lda     tmp1
	ora     #$20
	tax
	pla
	jsr     _one_vram_buffer
;
; one_vram_buffer(0xdf, NTADR_A(x+1, y+1));
;
	lda     #$DF
	jsr     pusha
	ldx     #$00
	lda     _y
	clc
	adc     #$01
	bcc     L0B1E
	inx
L0B1E:	jsr     shlax4
	stx     tmp1
	asl     a
	rol     tmp1
	sta     ptr1
	ldx     #$00
	lda     _x
	clc
	adc     #$01
	bcc     L0B20
	inx
L0B20:	ora     ptr1
	pha
	txa
	ora     tmp1
	tax
	pla
	pha
	txa
	ora     #$20
	tax
	pla
	jsr     _one_vram_buffer
;
; one_vram_buffer(0xee, NTADR_A(x,y+2));
;
	lda     #$EE
	jsr     pusha
	ldx     #$00
	lda     _y
	clc
	adc     #$02
	bcc     L0B28
	inx
L0B28:	jsr     shlax4
	stx     tmp1
	asl     a
	rol     tmp1
	sta     ptr1
	lda     _x
	ora     ptr1
	pha
	lda     tmp1
	ora     #$20
	tax
	pla
	jsr     _one_vram_buffer
;
; one_vram_buffer(0xef, NTADR_A(x+1,y+2));
;
	lda     #$EF
	jsr     pusha
	ldx     #$00
	lda     _y
	clc
	adc     #$02
	bcc     L0B31
	inx
L0B31:	jsr     shlax4
	stx     tmp1
	asl     a
	rol     tmp1
	sta     ptr1
	ldx     #$00
	lda     _x
	clc
	adc     #$01
	bcc     L0B33
	inx
L0B33:	ora     ptr1
	pha
	txa
	ora     tmp1
	tax
	pla
	pha
	txa
	ora     #$20
	tax
	pla
	jsr     _one_vram_buffer
;
; one_vram_buffer(0xfe, NTADR_A(x,y+3));
;
	lda     #$FE
	jsr     pusha
	ldx     #$00
	lda     _y
	clc
	adc     #$03
	bcc     L0B3B
	inx
L0B3B:	jsr     shlax4
	stx     tmp1
	asl     a
	rol     tmp1
	sta     ptr1
	lda     _x
	ora     ptr1
	pha
	lda     tmp1
	ora     #$20
	tax
	pla
	jsr     _one_vram_buffer
;
; one_vram_buffer(0xff, NTADR_A(x+1,y+3));
;
	lda     #$FF
	jsr     pusha
	ldx     #$00
	lda     _y
	clc
	adc     #$03
	bcc     L0B44
	inx
L0B44:	jsr     shlax4
	stx     tmp1
	asl     a
	rol     tmp1
	sta     ptr1
	ldx     #$00
	lda     _x
	clc
	adc     #$01
	bcc     L0B46
	inx
L0B46:	ora     ptr1
	pha
	txa
	ora     tmp1
	tax
	pla
	pha
	txa
	ora     #$20
	tax
	pla
	jmp     _one_vram_buffer
;
; one_vram_buffer(0x5e, NTADR_A(x,y));
;
L0B48:	lda     #$5E
	jsr     pusha
	ldx     #$00
	lda     _y
	jsr     aslax4
	stx     tmp1
	asl     a
	rol     tmp1
	sta     ptr1
	lda     _x
	ora     ptr1
	pha
	lda     tmp1
	ora     #$20
	tax
	pla
	jsr     _one_vram_buffer
;
; one_vram_buffer(0x5f, NTADR_A(x+1,y));
;
	lda     #$5F
	jsr     pusha
	ldx     #$00
	lda     _y
	jsr     aslax4
	stx     tmp1
	asl     a
	rol     tmp1
	sta     ptr1
	ldx     #$00
	lda     _x
	clc
	adc     #$01
	bcc     L0B59
	inx
L0B59:	ora     ptr1
	pha
	txa
	ora     tmp1
	tax
	pla
	pha
	txa
	ora     #$20
	tax
	pla
	jsr     _one_vram_buffer
;
; one_vram_buffer(0x6e, NTADR_A(x, y+1));
;
	lda     #$6E
	jsr     pusha
	ldx     #$00
	lda     _y
	clc
	adc     #$01
	bcc     L0B61
	inx
L0B61:	jsr     shlax4
	stx     tmp1
	asl     a
	rol     tmp1
	sta     ptr1
	lda     _x
	ora     ptr1
	pha
	lda     tmp1
	ora     #$20
	tax
	pla
	jsr     _one_vram_buffer
;
; one_vram_buffer(0x6f, NTADR_A(x+1, y+1));
;
	lda     #$6F
	jsr     pusha
	ldx     #$00
	lda     _y
	clc
	adc     #$01
	bcc     L0B6A
	inx
L0B6A:	jsr     shlax4
	stx     tmp1
	asl     a
	rol     tmp1
	sta     ptr1
	ldx     #$00
	lda     _x
	clc
	adc     #$01
	bcc     L0B6C
	inx
L0B6C:	ora     ptr1
	pha
	txa
	ora     tmp1
	tax
	pla
	pha
	txa
	ora     #$20
	tax
	pla
	jsr     _one_vram_buffer
;
; one_vram_buffer(0x7e, NTADR_A(x,y+2));
;
	lda     #$7E
	jsr     pusha
	ldx     #$00
	lda     _y
	clc
	adc     #$02
	bcc     L0B74
	inx
L0B74:	jsr     shlax4
	stx     tmp1
	asl     a
	rol     tmp1
	sta     ptr1
	lda     _x
	ora     ptr1
	pha
	lda     tmp1
	ora     #$20
	tax
	pla
	jsr     _one_vram_buffer
;
; one_vram_buffer(0x7f, NTADR_A(x+1,y+2));
;
	lda     #$7F
	jsr     pusha
	ldx     #$00
	lda     _y
	clc
	adc     #$02
	bcc     L0B7D
	inx
L0B7D:	jsr     shlax4
	stx     tmp1
	asl     a
	rol     tmp1
	sta     ptr1
	ldx     #$00
	lda     _x
	clc
	adc     #$01
	bcc     L0B7F
	inx
L0B7F:	ora     ptr1
	pha
	txa
	ora     tmp1
	tax
	pla
	pha
	txa
	ora     #$20
	tax
	pla
	jsr     _one_vram_buffer
;
; one_vram_buffer(0x8e, NTADR_A(x,y+3));
;
	lda     #$8E
	jsr     pusha
	ldx     #$00
	lda     _y
	clc
	adc     #$03
	bcc     L0B87
	inx
L0B87:	jsr     shlax4
	stx     tmp1
	asl     a
	rol     tmp1
	sta     ptr1
	lda     _x
	ora     ptr1
	pha
	lda     tmp1
	ora     #$20
	tax
	pla
	jsr     _one_vram_buffer
;
; one_vram_buffer(0x8f, NTADR_A(x+1,y+3));
;
	lda     #$8F
	jsr     pusha
	ldx     #$00
	lda     _y
	clc
	adc     #$03
	bcc     L0B90
	inx
L0B90:	jsr     shlax4
	stx     tmp1
	asl     a
	rol     tmp1
	sta     ptr1
	ldx     #$00
	lda     _x
	clc
	adc     #$01
	bcc     L0B92
	inx
L0B92:	ora     ptr1
	pha
	txa
	ora     tmp1
	tax
	pla
	pha
	txa
	ora     #$20
	tax
	pla
	jmp     _one_vram_buffer
;
; one_vram_buffer(0x1e, NTADR_A(x,y));
;
L0B94:	lda     #$1E
	jsr     pusha
	ldx     #$00
	lda     _y
	jsr     aslax4
	stx     tmp1
	asl     a
	rol     tmp1
	sta     ptr1
	lda     _x
	ora     ptr1
	pha
	lda     tmp1
	ora     #$20
	tax
	pla
	jsr     _one_vram_buffer
;
; one_vram_buffer(0x1f, NTADR_A(x+1,y));
;
	lda     #$1F
	jsr     pusha
	ldx     #$00
	lda     _y
	jsr     aslax4
	stx     tmp1
	asl     a
	rol     tmp1
	sta     ptr1
	ldx     #$00
	lda     _x
	clc
	adc     #$01
	bcc     L0BA5
	inx
L0BA5:	ora     ptr1
	pha
	txa
	ora     tmp1
	tax
	pla
	pha
	txa
	ora     #$20
	tax
	pla
	jsr     _one_vram_buffer
;
; one_vram_buffer(0x2e, NTADR_A(x, y+1));
;
	lda     #$2E
	jsr     pusha
	ldx     #$00
	lda     _y
	clc
	adc     #$01
	bcc     L0BAD
	inx
L0BAD:	jsr     shlax4
	stx     tmp1
	asl     a
	rol     tmp1
	sta     ptr1
	lda     _x
	ora     ptr1
	pha
	lda     tmp1
	ora     #$20
	tax
	pla
	jsr     _one_vram_buffer
;
; one_vram_buffer(0x2f, NTADR_A(x+1, y+1));
;
	lda     #$2F
	jsr     pusha
	ldx     #$00
	lda     _y
	clc
	adc     #$01
	bcc     L0BB6
	inx
L0BB6:	jsr     shlax4
	stx     tmp1
	asl     a
	rol     tmp1
	sta     ptr1
	ldx     #$00
	lda     _x
	clc
	adc     #$01
	bcc     L0BB8
	inx
L0BB8:	ora     ptr1
	pha
	txa
	ora     tmp1
	tax
	pla
	pha
	txa
	ora     #$20
	tax
	pla
	jsr     _one_vram_buffer
;
; one_vram_buffer(0x3e, NTADR_A(x,y+2));
;
	lda     #$3E
	jsr     pusha
	ldx     #$00
	lda     _y
	clc
	adc     #$02
	bcc     L0BC0
	inx
L0BC0:	jsr     shlax4
	stx     tmp1
	asl     a
	rol     tmp1
	sta     ptr1
	lda     _x
	ora     ptr1
	pha
	lda     tmp1
	ora     #$20
	tax
	pla
	jsr     _one_vram_buffer
;
; one_vram_buffer(0x3f, NTADR_A(x+1,y+2));
;
	lda     #$3F
	jsr     pusha
	ldx     #$00
	lda     _y
	clc
	adc     #$02
	bcc     L0BC9
	inx
L0BC9:	jsr     shlax4
	stx     tmp1
	asl     a
	rol     tmp1
	sta     ptr1
	ldx     #$00
	lda     _x
	clc
	adc     #$01
	bcc     L0BCB
	inx
L0BCB:	ora     ptr1
	pha
	txa
	ora     tmp1
	tax
	pla
	pha
	txa
	ora     #$20
	tax
	pla
	jsr     _one_vram_buffer
;
; one_vram_buffer(0x4e, NTADR_A(x,y+3));
;
	lda     #$4E
	jsr     pusha
	ldx     #$00
	lda     _y
	clc
	adc     #$03
	bcc     L0BD3
	inx
L0BD3:	jsr     shlax4
	stx     tmp1
	asl     a
	rol     tmp1
	sta     ptr1
	lda     _x
	ora     ptr1
	pha
	lda     tmp1
	ora     #$20
	tax
	pla
	jsr     _one_vram_buffer
;
; one_vram_buffer(0x4f, NTADR_A(x+1,y+3));
;
	lda     #$4F
	jsr     pusha
	ldx     #$00
	lda     _y
	clc
	adc     #$03
	bcc     L0BDC
	inx
L0BDC:	jsr     shlax4
	stx     tmp1
	asl     a
	rol     tmp1
	sta     ptr1
	ldx     #$00
	lda     _x
	clc
	adc     #$01
	bcc     L0BDE
	inx
L0BDE:	ora     ptr1
	pha
	txa
	ora     tmp1
	tax
	pla
	pha
	txa
	ora     #$20
	tax
	pla
	jmp     _one_vram_buffer

.endproc

; ---------------------------------------------------------------
; void __near__ draw_level_one_sprites (void)
; ---------------------------------------------------------------

.segment	"CODE"

.proc	_draw_level_one_sprites: near

.segment	"CODE"

;
; oam_clear();
;
	jsr     _oam_clear
;
; bird_x += 1;
;
	inc     _bird_x
;
; bird_y = 0x20;
;
	lda     #$20
	sta     _bird_y
;
; oam_meta_spr(bird_x,bird_y,Bird);
;
	jsr     decsp2
	lda     _bird_x
	ldy     #$01
	sta     (sp),y
	lda     _bird_y
	dey
	sta     (sp),y
	lda     #<(_Bird)
	ldx     #>(_Bird)
	jmp     _oam_meta_spr

.endproc

; ---------------------------------------------------------------
; void __near__ draw_talking_time (void)
; ---------------------------------------------------------------

.segment	"CODE"

.proc	_draw_talking_time: near

.segment	"CODE"

;
; temp1 = 0x2044; //vram addr for start of box
;
	lda     #$44
	sta     _temp1
;
; for(temp2 = 0; temp2 < 6; ++temp2){
;
	lda     #$00
	sta     _temp2
L0D0E:	lda     _temp2
	cmp     #$06
	bcs     L0835
;
; ppu_wait_nmi();
;
	jsr     _ppu_wait_nmi
;
; vram_adr(temp1); //Nametable A starting block
;
	lda     _temp1
	ldx     #$00
	jsr     _vram_adr
;
; for(index = 0; index < 9; ++index){
;
	lda     #$00
	sta     _index
L0D0F:	lda     _index
	cmp     #$09
	bcs     L0840
;
; vram_put(0x00);
;
	lda     #$00
	jsr     _vram_put
;
; for(index = 0; index < 9; ++index){
;
	inc     _index
	jmp     L0D0F
;
; flush_vram_update2();
;
L0840:	jsr     _flush_vram_update2
;
; temp1 += 16;
;
	lda     #$10
	clc
	adc     _temp1
	sta     _temp1
;
; for(temp2 = 0; temp2 < 6; ++temp2){
;
	inc     _temp2
	jmp     L0D0E
;
; flush_vram_update2();
;
L0835:	jsr     _flush_vram_update2
;
; talking_time = 1;
;
	lda     #$01
	sta     _talking_time
;
; }
;
	rts

.endproc

; ---------------------------------------------------------------
; void __near__ draw_talking_time_background (void)
; ---------------------------------------------------------------

.segment	"CODE"

.proc	_draw_talking_time_background: near

.segment	"CODE"

;
; set_chr_bank_0(TALKING_TIME_CHR);
;
	lda     #$02
	jsr     _set_chr_bank_0
;
; set_chr_bank_1(TALKING_TIME_CHR);
;
	lda     #$02
	jsr     _set_chr_bank_1
;
; clear_background();
;
	jsr     _clear_background
;
; pal_bg(talking_time_palete);
;
	lda     #<(_talking_time_palete)
	ldx     #>(_talking_time_palete)
	jsr     _pal_bg
;
; tempint = 0x2084;
;
	ldx     #$20
	lda     #$84
	sta     _tempint
	stx     _tempint+1
;
; temp1 = 0x80;
;
	lda     #$80
	sta     _temp1
;
; for(index2 = 0; index2 < 8; ++index2){
;
	lda     #$00
	sta     _index2
L0D11:	lda     _index2
	cmp     #$08
	bcs     L0808
;
; vram_adr(tempint);
;
	lda     _tempint
	ldx     _tempint+1
	jsr     _vram_adr
;
; for(index = 0; index < 8; ++index){
;
	lda     #$00
	sta     _index
L0D12:	lda     _index
	cmp     #$08
	bcs     L0812
;
; vram_put(temp1 + index);
;
	lda     _temp1
	clc
	adc     _index
	jsr     _vram_put
;
; for(index = 0; index < 8; ++index){
;
	inc     _index
	jmp     L0D12
;
; flush_vram_update2();
;
L0812:	jsr     _flush_vram_update2
;
; temp1 += 16;
;
	lda     #$10
	clc
	adc     _temp1
	sta     _temp1
;
; tempint += 32;
;
	lda     #$20
	clc
	adc     _tempint
	sta     _tempint
	bcc     L0820
	inc     _tempint+1
;
; for(index2 = 0; index2 < 8; ++index2){
;
L0820:	inc     _index2
	jmp     L0D11
;
; }
;
L0808:	rts

.endproc

; ---------------------------------------------------------------
; void __near__ clear_background (void)
; ---------------------------------------------------------------

.segment	"CODE"

.proc	_clear_background: near

.segment	"CODE"

;
; vram_adr(NAMETABLE_A);
;
	ldx     #$20
	lda     #$00
	jsr     _vram_adr
;
; for(tempint = 0; tempint < 960; ++tempint){
;
	lda     #$00
	sta     _tempint
	sta     _tempint+1
L0824:	lda     _tempint
	cmp     #$C0
	lda     _tempint+1
	sbc     #$03
	bvc     L082B
	eor     #$80
L082B:	bpl     L0825
;
; vram_put(0x00);
;
	lda     #$00
	jsr     _vram_put
;
; flush_vram_update2();
;
	jsr     _flush_vram_update2
;
; for(tempint = 0; tempint < 960; ++tempint){
;
	inc     _tempint
	bne     L0824
	inc     _tempint+1
	jmp     L0824
;
; }
;
L0825:	rts

.endproc

; ---------------------------------------------------------------
; void __near__ reset_game_variables (void)
; ---------------------------------------------------------------

.segment	"CODE"

.proc	_reset_game_variables: near

.segment	"CODE"

;
; gas1 = gas2 = gas3 = gas4 = gas5 = 0;
;
	lda     #$00
	sta     _gas5
	sta     _gas4
	sta     _gas3
	sta     _gas2
	sta     _gas1
;
; cost1 = cost2 = cost3 = cost4 = cost5 = 0;
;
	sta     _cost5
	sta     _cost4
	sta     _cost3
	sta     _cost2
	sta     _cost1
;
; }
;
	rts

.endproc

; ---------------------------------------------------------------
; void __near__ main (void)
; ---------------------------------------------------------------

.segment	"CODE"

.proc	_main: near

.segment	"CODE"

;
; ppu_off(); // screen off
;
	jsr     _ppu_off
;
; moveframes =0;
;
	lda     #$00
	sta     _moveframes
;
; pal_bg(background_pal); // load the palette
;
	lda     #<(_background_pal)
	ldx     #>(_background_pal)
	jsr     _pal_bg
;
; pal_spr(pal2); // load the palette
;
	lda     #<(_pal2)
	ldx     #>(_pal2)
	jsr     _pal_spr
;
; pal_col(0,0x0D);
;
	lda     #$00
	jsr     pusha
	lda     #$0D
	jsr     _pal_col
;
; bank_spr(1); // sprites use the 2nd tileset
;
	lda     #$01
	jsr     _bank_spr
;
; set_scroll_y(0xff); // shift the bg down 1 pixel
;
	ldx     #$00
	lda     #$FF
	jsr     _set_scroll_y
;
; vram_adr(NAMETABLE_A);
;
	ldx     #$20
	lda     #$00
	jsr     _vram_adr
;
; ppu_wait_nmi(); // wait
;
	jsr     _ppu_wait_nmi
;
; set_vram_buffer(); // points ppu update to vram_buffer, do this at least once
;
	jsr     _set_vram_buffer
;
; ppu_on_all(); // turn on screen
;
	jsr     _ppu_on_all
;
; init_mode_title();
;
	jsr     _init_mode_title
;
; if(game_mode == MODE_TITLE){
;
L0D13:	lda     _game_mode
	bne     L0D14
;
; ppu_wait_nmi();
;
	jsr     _ppu_wait_nmi
;
; read_input();
;
	jsr     _read_input
;
; if (trigger_clicked)
;
	lda     _trigger_clicked
	beq     L0D14
;
; init_mode_intro();
;
	jsr     _init_mode_intro
;
; if(game_mode == MODE_INTRO){
;
L0D14:	lda     _game_mode
	cmp     #$03
	bne     L0D1B
;
; ppu_wait_nmi();
;
	jsr     _ppu_wait_nmi
;
; ++moveframes;
;
	inc     _moveframes
;
; if(moveframes > 60){
;
	lda     _moveframes
	cmp     #$3D
	bcc     L0785
;
; moveframes = 0;
;
	lda     #$00
	sta     _moveframes
;
; oam_clear(); // clear all sprites
;
L0785:	jsr     _oam_clear
;
; if(moveframes >= 0 && moveframes < 30){
;
	lda     _moveframes
	cmp     #$1E
	bcs     L0D16
;
; oam_meta_spr(0x20, 0x20, BigAlTalk1);
;
	jsr     decsp2
	lda     #$20
	ldy     #$01
	sta     (sp),y
	dey
	sta     (sp),y
	lda     #<(_BigAlTalk1)
	ldx     #>(_BigAlTalk1)
	jsr     _oam_meta_spr
;
; if(moveframes >= 30 && moveframes < 61){
;
L0D16:	lda     _moveframes
	cmp     #$1E
	bcc     L0792
	cmp     #$3D
	bcs     L0792
;
; oam_meta_spr(0x20, 0x20, BigAlTalk2);
;
	jsr     decsp2
	lda     #$20
	ldy     #$01
	sta     (sp),y
	dey
	sta     (sp),y
	lda     #<(_BigAlTalk2)
	ldx     #>(_BigAlTalk2)
	jsr     _oam_meta_spr
;
; read_input();
;
L0792:	jsr     _read_input
;
; if (trigger_clicked)
;
	lda     _trigger_clicked
	beq     L0D1B
;
; for(index=0; index < 10; ++index){
;
	lda     #$00
	sta     _index
L0D1A:	lda     _index
	cmp     #$0A
	bcs     L079E
;
; ppu_wait_nmi();
;
	jsr     _ppu_wait_nmi
;
; for(index=0; index < 10; ++index){
;
	inc     _index
	jmp     L0D1A
;
; init_mode_game();
;
L079E:	jsr     _init_mode_game
;
; if(game_mode == MODE_TALKING_TIME){
;
L0D1B:	lda     _game_mode
	cmp     #$05
	jne     L0D23
;
; ppu_wait_nmi();
;
	jsr     _ppu_wait_nmi
;
; ++moveframes;
;
	inc     _moveframes
;
; if(moveframes > 60){
;
	lda     _moveframes
	cmp     #$3D
	bcc     L07AB
;
; moveframes = 0;
;
	lda     #$00
	sta     _moveframes
;
; oam_clear(); // clear all sprites
;
L07AB:	jsr     _oam_clear
;
; if(moveframes >= 0 && moveframes < 30){
;
	lda     _moveframes
	cmp     #$1E
	bcs     L0D1D
;
; oam_meta_spr(0x20, 0x20, BigAlTalk1);
;
	jsr     decsp2
	lda     #$20
	ldy     #$01
	sta     (sp),y
	dey
	sta     (sp),y
	lda     #<(_BigAlTalk1)
	ldx     #>(_BigAlTalk1)
	jsr     _oam_meta_spr
;
; if(moveframes >= 30 && moveframes < 61){
;
L0D1D:	lda     _moveframes
	cmp     #$1E
	bcc     L07B8
	cmp     #$3D
	bcs     L07B8
;
; oam_meta_spr(0x20, 0x20, BigAlTalk2);
;
	jsr     decsp2
	lda     #$20
	ldy     #$01
	sta     (sp),y
	dey
	sta     (sp),y
	lda     #<(_BigAlTalk2)
	ldx     #>(_BigAlTalk2)
	jsr     _oam_meta_spr
;
; read_input();
;
L07B8:	jsr     _read_input
;
; if (trigger_clicked)
;
	lda     _trigger_clicked
	beq     L0D23
;
; for(index=0; index < 10; ++index){
;
	lda     #$00
	sta     _index
L0D21:	lda     _index
	cmp     #$0A
	bcs     L0D22
;
; ppu_wait_nmi();
;
	jsr     _ppu_wait_nmi
;
; for(index=0; index < 10; ++index){
;
	inc     _index
	jmp     L0D21
;
; switch(game_level){
;
L0D22:	lda     _game_level
;
; }
;
	beq     L07D0
	cmp     #$01
	beq     L07D3
	jmp     L0D23
;
; init_mode_game();
;
L07D0:	jsr     _init_mode_game
;
; break;
;
	jmp     L0D23
;
; init_mode_title();
;
L07D3:	jsr     _init_mode_title
;
; if(game_mode == MODE_GAME){
;
L0D23:	lda     _game_mode
	cmp     #$01
	jne     L0D13
;
; ppu_wait_nmi(); // wait till beginning of the frame
;
	jsr     _ppu_wait_nmi
;
; draw_level_one_sprites();
;
	jsr     _draw_level_one_sprites
;
; read_input(); //sets input_active
;
	jsr     _read_input
;
; if(trigger_pulled){
;
	lda     _trigger_pulled
	beq     L07DB
;
; started_pumping = 1; //actually only need to set this once
;
	lda     #$01
	sta     _started_pumping
;
; gas_speed += GAS_STEP;
;
	lda     #$32
	clc
	adc     _gas_speed
	sta     _gas_speed
	bcc     L07E4
	inc     _gas_speed+1
;
; while(gas_speed > 256){
;
	jmp     L07E4
;
; ++gas1;
;
L0D24:	inc     _gas1
;
; gas_speed -= 256;
;
	lda     _gas_speed
	sec
	sbc     #$00
	sta     _gas_speed
	lda     _gas_speed+1
	sbc     #$01
	sta     _gas_speed+1
;
; while(gas_speed > 256){
;
L07E4:	lda     _gas_speed
	cmp     #$01
	lda     _gas_speed+1
	sbc     #$01
	bcs     L0D24
;
; adjust_gas();
;
	jsr     _adjust_gas
;
; cost_speed += COST_STEP;
;
	lda     #$50
	clc
	adc     _cost_speed
	sta     _cost_speed
	bcc     L07EF
	inc     _cost_speed+1
;
; while(cost_speed > 256){
;
	jmp     L07EF
;
; ++cost1;
;
L0D25:	inc     _cost1
;
; cost_speed -= 256;
;
	lda     _cost_speed
	sec
	sbc     #$00
	sta     _cost_speed
	lda     _cost_speed+1
	sbc     #$01
	sta     _cost_speed+1
;
; while(cost_speed > 256){
;
L07EF:	lda     _cost_speed
	cmp     #$01
	lda     _cost_speed+1
	sbc     #$01
	bcs     L0D25
;
; adjust_cost(); 
;
	jsr     _adjust_cost
;
; } else {
;
	jmp     L07F6
;
; if(started_pumping == 1){
;
L07DB:	lda     _started_pumping
	cmp     #$01
	bne     L07F6
;
; init_level_one_end();
;
	jsr     _init_level_one_end
;
; draw_gas();
;
L07F6:	jsr     _draw_gas
;
; draw_cost();
;
	jsr     _draw_cost
;
; while (1){
;
	jmp     L0D13

.endproc

